	.file	"mctl_hal.c"
	.option nopic
	.text
.Ltext0:
	.cfi_sections	.debug_frame
	.section	.text.set_ddr_voltage,"ax",@progbits
	.align	1
	.weak	set_ddr_voltage
	.type	set_ddr_voltage, @function
set_ddr_voltage:
.LFB37:
	.file 1 "mctl_hal.c"
	.loc 1 29 1
	.cfi_startproc
.LVL0:
	.loc 1 30 1
	ret
	.cfi_endproc
.LFE37:
	.size	set_ddr_voltage, .-set_ddr_voltage
	.section	.text.handler_super_standby,"ax",@progbits
	.align	1
	.weak	handler_super_standby
	.type	handler_super_standby, @function
handler_super_standby:
.LFB38:
	.loc 1 33 1
	.cfi_startproc
	.loc 1 34 1
	ret
	.cfi_endproc
.LFE38:
	.size	handler_super_standby, .-handler_super_standby
	.section	.text.get_pmu_exist,"ax",@progbits
	.align	1
	.weak	get_pmu_exist
	.type	get_pmu_exist, @function
get_pmu_exist:
.LFB39:
	.loc 1 36 1
	.cfi_startproc
	.loc 1 37 1
	.loc 1 38 1 is_stmt 0
	li	a0,-1
	ret
	.cfi_endproc
.LFE39:
	.size	get_pmu_exist, .-get_pmu_exist
	.section	.text.memcpy_self,"ax",@progbits
	.align	1
	.globl	memcpy_self
	.type	memcpy_self, @function
memcpy_self:
.LFB40:
	.loc 1 41 1 is_stmt 1
	.cfi_startproc
.LVL1:
	.loc 1 44 2
	.loc 1 45 2
	.loc 1 46 2
	.loc 1 46 7 is_stmt 0
	li	a5,0
.LVL2:
.L5:
	bne	a2,a5,.L6
	.loc 1 49 1
	ret
.L6:
	.loc 1 47 3 is_stmt 1
.LVL3:
	.loc 1 47 13 is_stmt 0
	lrbu	a4,a1,a5,0
	.loc 1 47 11
	srb	a4,a0,a5,0
	addi	a5,a5,1
.LVL4:
	j	.L5
	.cfi_endproc
.LFE40:
	.size	memcpy_self, .-memcpy_self
	.section	.text.dram_udelay,"ax",@progbits
	.align	1
	.globl	dram_udelay
	.type	dram_udelay, @function
dram_udelay:
.LFB41:
	.loc 1 58 1 is_stmt 1
	.cfi_startproc
.LVL5:
	.loc 1 59 3
	extu	a0,a0,31,0
	tail	sdelay
.LVL6:
	.cfi_endproc
.LFE41:
	.size	dram_udelay, .-dram_udelay
	.section	.text.dram_vol_set,"ax",@progbits
	.align	1
	.globl	dram_vol_set
	.type	dram_vol_set, @function
dram_vol_set:
.LFB42:
	.loc 1 91 1
	.cfi_startproc
.LVL7:
	.loc 1 92 2
	.loc 1 93 2
	.loc 1 94 2
	.loc 1 94 13 is_stmt 0
	lw	a5,4(a0)
	.loc 1 91 1
	addi	sp,sp,-16
	.cfi_def_cfa_offset 16
	sd	ra,8(sp)
	.cfi_offset 1, -8
	li	a3,2
	.loc 1 97 12
	li	a4,47
	beq	a5,a3,.L9
	li	a3,3
	.loc 1 100 12
	li	a4,25
	beq	a5,a3,.L9
	.loc 1 93 15
	li	a4,0
.L9:
.LVL8:
	.loc 1 107 2 is_stmt 1
.LBB1162:
.LBB1163:
	.file 2 "/tina-d1/lichee/brandy-2.0/spl/include/arch/riscv/asm/io.h"
	.loc 2 138 2
	.loc 2 140 2
	.loc 2 140 6 is_stmt 0
	li	a2,50331648
	lw	a5,336(a2)
.LVL9:
	.loc 2 141 2 is_stmt 1
#APP
# 141 "/tina-d1/lichee/brandy-2.0/spl/include/arch/riscv/asm/io.h" 1
	fence ir,ir
# 0 "" 2
	.loc 2 142 2
.LVL10:
#NO_APP
.LBE1163:
.LBE1162:
	.loc 1 108 2
	.loc 1 108 10 is_stmt 0
	li	a3,-65536
	addi	a3,a3,255
	and	a5,a5,a3
.LVL11:
	.loc 1 109 2 is_stmt 1
	.loc 1 109 20 is_stmt 0
	slliw	a4,a4,8
.LVL12:
	.loc 1 109 10
	or	a5,a5,a4
.LVL13:
	.loc 1 110 2 is_stmt 1
	.loc 1 111 2
.LBB1164:
.LBB1165:
	.loc 2 96 2
#APP
# 96 "/tina-d1/lichee/brandy-2.0/spl/include/arch/riscv/asm/io.h" 1
	fence ow,ow
# 0 "" 2
	.loc 2 97 2
#NO_APP
.LBE1165:
.LBE1164:
	.loc 1 110 10 is_stmt 0
	li	a4,-2097152
	addi	a4,a4,-1
	and	a5,a5,a4
.LVL14:
.LBB1167:
.LBB1166:
	.loc 2 97 2
	sw	a5,336(a2)
.LVL15:
.LBE1166:
.LBE1167:
	.loc 1 112 2 is_stmt 1
.LBB1168:
.LBB1169:
	.loc 1 59 3
	li	a0,1
.LVL16:
	call	sdelay
.LVL17:
.LBE1169:
.LBE1168:
	.loc 1 115 2
.LBB1170:
.LBB1171:
	.loc 2 138 2
	.loc 2 140 2
	.loc 2 141 2
#APP
# 141 "/tina-d1/lichee/brandy-2.0/spl/include/arch/riscv/asm/io.h" 1
	fence ir,ir
# 0 "" 2
	.loc 2 142 2
.LVL18:
#NO_APP
.LBE1171:
.LBE1170:
	.loc 1 116 49
	.loc 1 118 1 is_stmt 0
	ld	ra,8(sp)
	.cfi_restore 1
	addi	sp,sp,16
	.cfi_def_cfa_offset 0
	jr	ra
	.cfi_endproc
.LFE42:
	.size	dram_vol_set, .-dram_vol_set
	.section	.text.paraconfig,"ax",@progbits
	.align	1
	.globl	paraconfig
	.type	paraconfig, @function
paraconfig:
.LFB43:
	.loc 1 126 1 is_stmt 1
	.cfi_startproc
.LVL19:
	.loc 1 127 2
	.loc 1 128 2
	.loc 1 127 8 is_stmt 0
	lw	a5,0(a0)
	.loc 1 127 11
	not	a1,a1
.LVL20:
	.loc 1 127 8
	and	a1,a1,a5
	.loc 1 128 8
	or	a1,a1,a2
	sw	a1,0(a0)
	.loc 1 129 1
	ret
	.cfi_endproc
.LFE43:
	.size	paraconfig, .-paraconfig
	.section	.text.dram_enable_all_master,"ax",@progbits
	.align	1
	.globl	dram_enable_all_master
	.type	dram_enable_all_master, @function
dram_enable_all_master:
.LFB44:
	.loc 1 137 1 is_stmt 1
	.cfi_startproc
	.loc 1 139 2
.LVL21:
.LBB1172:
.LBB1173:
	.loc 2 96 2
#APP
# 96 "/tina-d1/lichee/brandy-2.0/spl/include/arch/riscv/asm/io.h" 1
	fence ow,ow
# 0 "" 2
	.loc 2 97 2
#NO_APP
	li	a5,51388416
	li	a4,-1
	sw	a4,32(a5)
.LVL22:
.LBE1173:
.LBE1172:
	.loc 1 140 2
.LBB1174:
.LBB1175:
	.loc 2 96 2
#APP
# 96 "/tina-d1/lichee/brandy-2.0/spl/include/arch/riscv/asm/io.h" 1
	fence ow,ow
# 0 "" 2
	.loc 2 97 2
#NO_APP
	li	a4,255
	sw	a4,36(a5)
.LVL23:
.LBE1175:
.LBE1174:
	.loc 1 141 2
.LBB1176:
.LBB1177:
	.loc 2 96 2
#APP
# 96 "/tina-d1/lichee/brandy-2.0/spl/include/arch/riscv/asm/io.h" 1
	fence ow,ow
# 0 "" 2
	.loc 2 97 2
#NO_APP
	li	a4,65536
	addiw	a4,a4,-1
	sw	a4,40(a5)
.LVL24:
.LBE1177:
.LBE1176:
	.loc 1 142 2
.LBB1178:
.LBB1179:
	.loc 1 59 3
	li	a0,10
	tail	sdelay
.LVL25:
.LBE1179:
.LBE1178:
	.cfi_endproc
.LFE44:
	.size	dram_enable_all_master, .-dram_enable_all_master
	.section	.text.dram_disable_all_master,"ax",@progbits
	.align	1
	.globl	dram_disable_all_master
	.type	dram_disable_all_master, @function
dram_disable_all_master:
.LFB45:
	.loc 1 150 1
	.cfi_startproc
	.loc 1 152 2
.LVL26:
.LBB1180:
.LBB1181:
	.loc 2 96 2
#APP
# 96 "/tina-d1/lichee/brandy-2.0/spl/include/arch/riscv/asm/io.h" 1
	fence ow,ow
# 0 "" 2
	.loc 2 97 2
#NO_APP
	li	a5,51388416
	li	a4,1
	sw	a4,32(a5)
.LVL27:
.LBE1181:
.LBE1180:
	.loc 1 153 2
.LBB1182:
.LBB1183:
	.loc 2 96 2
#APP
# 96 "/tina-d1/lichee/brandy-2.0/spl/include/arch/riscv/asm/io.h" 1
	fence ow,ow
# 0 "" 2
	.loc 2 97 2
#NO_APP
	sw	zero,36(a5)
.LVL28:
.LBE1183:
.LBE1182:
	.loc 1 154 2
.LBB1184:
.LBB1185:
	.loc 2 96 2
#APP
# 96 "/tina-d1/lichee/brandy-2.0/spl/include/arch/riscv/asm/io.h" 1
	fence ow,ow
# 0 "" 2
	.loc 2 97 2
#NO_APP
.LBE1185:
.LBE1184:
.LBB1187:
.LBB1188:
	.loc 1 59 3 is_stmt 0
	li	a0,10
.LBE1188:
.LBE1187:
.LBB1190:
.LBB1186:
	.loc 2 97 2
	sw	zero,40(a5)
.LVL29:
.LBE1186:
.LBE1190:
	.loc 1 155 2 is_stmt 1
.LBB1191:
.LBB1189:
	.loc 1 59 3
	tail	sdelay
.LVL30:
.LBE1189:
.LBE1191:
	.cfi_endproc
.LFE45:
	.size	dram_disable_all_master, .-dram_disable_all_master
	.section	.text.eye_delay_compensation,"ax",@progbits
	.align	1
	.globl	eye_delay_compensation
	.type	eye_delay_compensation, @function
eye_delay_compensation:
.LFB46:
	.loc 1 231 1
	.cfi_startproc
.LVL31:
	.loc 1 232 2
	.loc 1 233 2
	.loc 1 235 2
	.loc 1 231 1 is_stmt 0
	addi	sp,sp,-32
	.cfi_def_cfa_offset 32
	li	a4,51392512
	.loc 1 238 57
	li	a1,8192
	.loc 1 235 2
	li	a3,51392512
	.loc 1 231 1
	sd	s1,16(sp)
	sd	ra,24(sp)
	.cfi_offset 9, -16
	.cfi_offset 1, -8
	mv	s1,a0
	sd	s0,8(sp)
	.cfi_offset 8, -24
	.loc 1 231 1
	addi	a4,a4,784
	.loc 1 238 57
	addi	a1,a1,-512
	.loc 1 235 2
	addi	a0,a3,820
.LVL32:
.L17:
	.loc 1 237 3 is_stmt 1 discriminator 3
.LBB1192:
.LBB1193:
	.loc 2 138 2 discriminator 3
	.loc 2 140 2 discriminator 3
	.loc 2 140 6 is_stmt 0 discriminator 3
	lw	a6,0(a4)
.LVL33:
	.loc 2 141 2 is_stmt 1 discriminator 3
#APP
# 141 "/tina-d1/lichee/brandy-2.0/spl/include/arch/riscv/asm/io.h" 1
	fence ir,ir
# 0 "" 2
	.loc 2 142 2 discriminator 3
.LVL34:
#NO_APP
.LBE1193:
.LBE1192:
	.loc 1 238 3 discriminator 3
	.loc 1 238 57 is_stmt 0 discriminator 3
	lw	a5,84(s1)
	.loc 1 238 107 discriminator 3
	lw	a2,88(s1)
	.loc 1 238 57 discriminator 3
	slliw	a5,a5,9
	.loc 1 238 107 discriminator 3
	slliw	a2,a2,1
	.loc 1 238 57 discriminator 3
	and	a5,a5,a1
	.loc 1 238 107 discriminator 3
	andi	a2,a2,30
	.loc 1 238 63 discriminator 3
	or	a5,a5,a2
	.loc 1 238 11 discriminator 3
	or	a5,a5,a6
	sext.w	a5,a5
.LVL35:
	.loc 1 239 3 is_stmt 1 discriminator 3
.LBB1194:
.LBB1195:
	.loc 2 96 2 discriminator 3
#APP
# 96 "/tina-d1/lichee/brandy-2.0/spl/include/arch/riscv/asm/io.h" 1
	fence ow,ow
# 0 "" 2
	.loc 2 97 2 discriminator 3
#NO_APP
	swia	a5,(a4),4,0
.LVL36:
.LBE1195:
.LBE1194:
	.loc 1 235 2 is_stmt 0 discriminator 3
	bne	a4,a0,.L17
	.loc 1 245 57
	li	a5,8192
.LVL37:
	.loc 1 242 2
	li	s0,51392512
	addi	a3,a3,912
	.loc 1 245 57
	addi	a2,a5,-512
	.loc 1 242 2
	addi	a1,s0,948
.LVL38:
.L18:
	.loc 1 244 3 is_stmt 1 discriminator 3
.LBB1196:
.LBB1197:
	.loc 2 138 2 discriminator 3
	.loc 2 140 2 discriminator 3
	.loc 2 140 6 is_stmt 0 discriminator 3
	lw	a0,0(a3)
.LVL39:
	.loc 2 141 2 is_stmt 1 discriminator 3
#APP
# 141 "/tina-d1/lichee/brandy-2.0/spl/include/arch/riscv/asm/io.h" 1
	fence ir,ir
# 0 "" 2
	.loc 2 142 2 discriminator 3
.LVL40:
#NO_APP
.LBE1197:
.LBE1196:
	.loc 1 245 3 discriminator 3
	.loc 1 245 51 is_stmt 0 discriminator 3
	lw	a4,84(s1)
	.loc 1 245 101 discriminator 3
	lw	a5,88(s1)
	.loc 1 245 51 discriminator 3
	srliw	a4,a4,4
	.loc 1 245 101 discriminator 3
	srliw	a5,a5,4
	.loc 1 245 57 discriminator 3
	slliw	a4,a4,9
	.loc 1 245 107 discriminator 3
	slliw	a5,a5,1
	.loc 1 245 57 discriminator 3
	and	a4,a4,a2
	.loc 1 245 107 discriminator 3
	andi	a5,a5,30
	.loc 1 245 63 discriminator 3
	or	a4,a4,a5
	.loc 1 245 11 discriminator 3
	or	a4,a4,a0
	sext.w	a4,a4
.LVL41:
	.loc 1 246 3 is_stmt 1 discriminator 3
.LBB1198:
.LBB1199:
	.loc 2 96 2 discriminator 3
#APP
# 96 "/tina-d1/lichee/brandy-2.0/spl/include/arch/riscv/asm/io.h" 1
	fence ow,ow
# 0 "" 2
	.loc 2 97 2 discriminator 3
#NO_APP
	swia	a4,(a3),4,0
.LVL42:
.LBE1199:
.LBE1198:
	.loc 1 242 2 is_stmt 0 discriminator 3
	bne	a3,a1,.L18
	.loc 1 250 2 is_stmt 1
.LVL43:
.LBB1200:
.LBB1201:
	.loc 2 138 2
	.loc 2 140 2
	.loc 2 140 6 is_stmt 0
	lw	a5,256(s0)
.LVL44:
	.loc 2 141 2 is_stmt 1
#APP
# 141 "/tina-d1/lichee/brandy-2.0/spl/include/arch/riscv/asm/io.h" 1
	fence ir,ir
# 0 "" 2
	.loc 2 142 2
.LVL45:
#NO_APP
.LBE1201:
.LBE1200:
	.loc 1 251 2
	.loc 1 252 2
.LBB1202:
.LBB1203:
	.loc 2 96 2
#APP
# 96 "/tina-d1/lichee/brandy-2.0/spl/include/arch/riscv/asm/io.h" 1
	fence ow,ow
# 0 "" 2
	.loc 2 97 2
#NO_APP
.LBE1203:
.LBE1202:
	.loc 1 251 10 is_stmt 0
	li	a4,-67108864
	addi	a4,a4,-1
	and	a5,a5,a4
.LVL46:
.LBB1205:
.LBB1204:
	.loc 2 97 2
	sw	a5,256(s0)
.LVL47:
.LBE1204:
.LBE1205:
	.loc 1 255 2 is_stmt 1
.LBB1206:
.LBB1207:
	.loc 2 138 2
	.loc 2 140 2
	.loc 2 140 6 is_stmt 0
	lw	a1,820(s0)
.LVL48:
	.loc 2 141 2 is_stmt 1
#APP
# 141 "/tina-d1/lichee/brandy-2.0/spl/include/arch/riscv/asm/io.h" 1
	fence ir,ir
# 0 "" 2
	.loc 2 142 2
.LVL49:
#NO_APP
.LBE1207:
.LBE1206:
	.loc 1 256 2
	.loc 1 256 51 is_stmt 0
	lhu	a4,86(s1)
	.loc 1 256 103
	lhu	a5,90(s1)
	.loc 1 256 58
	slliw	a4,a4,9
	.loc 1 256 110
	slliw	a5,a5,1
	.loc 1 256 58
	and	a4,a4,a2
	.loc 1 256 110
	andi	a5,a5,30
	.loc 1 256 64
	or	a4,a4,a5
	.loc 1 256 10
	or	a4,a4,a1
.LVL50:
	.loc 1 257 2 is_stmt 1
.LBB1208:
.LBB1209:
	.loc 2 96 2
#APP
# 96 "/tina-d1/lichee/brandy-2.0/spl/include/arch/riscv/asm/io.h" 1
	fence ow,ow
# 0 "" 2
	.loc 2 97 2
#NO_APP
	sw	a4,820(s0)
.LVL51:
.LBE1209:
.LBE1208:
	.loc 1 258 2
.LBB1210:
.LBB1211:
	.loc 2 138 2
	.loc 2 140 2
	.loc 2 140 6 is_stmt 0
	lw	a1,824(s0)
.LVL52:
	.loc 2 141 2 is_stmt 1
#APP
# 141 "/tina-d1/lichee/brandy-2.0/spl/include/arch/riscv/asm/io.h" 1
	fence ir,ir
# 0 "" 2
	.loc 2 142 2
.LVL53:
#NO_APP
.LBE1211:
.LBE1210:
	.loc 1 259 2
	.loc 1 259 51 is_stmt 0
	lhu	a4,86(s1)
	.loc 1 259 103
	lhu	a5,90(s1)
	.loc 1 259 58
	slliw	a4,a4,9
	.loc 1 259 110
	slliw	a5,a5,1
	.loc 1 259 58
	and	a4,a4,a2
	.loc 1 259 110
	andi	a5,a5,30
	.loc 1 259 64
	or	a4,a4,a5
	.loc 1 259 10
	or	a4,a4,a1
.LVL54:
	.loc 1 260 2 is_stmt 1
.LBB1212:
.LBB1213:
	.loc 2 96 2
#APP
# 96 "/tina-d1/lichee/brandy-2.0/spl/include/arch/riscv/asm/io.h" 1
	fence ow,ow
# 0 "" 2
	.loc 2 97 2
#NO_APP
	sw	a4,824(s0)
.LVL55:
.LBE1213:
.LBE1212:
	.loc 1 263 2
.LBB1214:
.LBB1215:
	.loc 2 138 2
	.loc 2 140 2
	.loc 2 140 6 is_stmt 0
	lw	a1,0(a3)
.LVL56:
	.loc 2 141 2 is_stmt 1
#APP
# 141 "/tina-d1/lichee/brandy-2.0/spl/include/arch/riscv/asm/io.h" 1
	fence ir,ir
# 0 "" 2
	.loc 2 142 2
.LVL57:
#NO_APP
.LBE1215:
.LBE1214:
	.loc 1 264 2
	.loc 1 264 51 is_stmt 0
	lw	a4,84(s1)
	.loc 1 264 103
	lw	a5,88(s1)
	.loc 1 264 51
	srliw	a4,a4,20
	.loc 1 264 103
	srliw	a5,a5,20
	.loc 1 264 58
	slliw	a4,a4,9
	.loc 1 264 110
	slliw	a5,a5,1
	.loc 1 264 58
	and	a4,a4,a2
	.loc 1 264 110
	andi	a5,a5,30
	.loc 1 264 64
	or	a4,a4,a5
	.loc 1 264 10
	or	a4,a4,a1
	sext.w	a4,a4
.LVL58:
	.loc 1 265 2 is_stmt 1
.LBB1216:
.LBB1217:
	.loc 2 96 2
#APP
# 96 "/tina-d1/lichee/brandy-2.0/spl/include/arch/riscv/asm/io.h" 1
	fence ow,ow
# 0 "" 2
	.loc 2 97 2
#NO_APP
	sw	a4,0(a3)
.LVL59:
.LBE1217:
.LBE1216:
	.loc 1 266 2
.LBB1218:
.LBB1219:
	.loc 2 138 2
	.loc 2 140 2
	.loc 2 140 6 is_stmt 0
	lw	a3,952(s0)
.LVL60:
	.loc 2 141 2 is_stmt 1
#APP
# 141 "/tina-d1/lichee/brandy-2.0/spl/include/arch/riscv/asm/io.h" 1
	fence ir,ir
# 0 "" 2
	.loc 2 142 2
.LVL61:
#NO_APP
.LBE1219:
.LBE1218:
	.loc 1 267 2
	.loc 1 267 51 is_stmt 0
	lw	a5,84(s1)
	.loc 1 267 103
	lw	a4,88(s1)
	.loc 1 267 51
	srliw	a5,a5,20
	.loc 1 267 103
	srliw	a4,a4,20
	.loc 1 267 58
	slliw	a5,a5,9
	.loc 1 267 110
	slliw	a4,a4,1
	.loc 1 267 58
	and	a5,a5,a2
	.loc 1 267 110
	andi	a4,a4,30
	.loc 1 267 64
	or	a5,a5,a4
	.loc 1 267 10
	or	a5,a5,a3
	sext.w	a5,a5
.LVL62:
	.loc 1 268 2 is_stmt 1
.LBB1220:
.LBB1221:
	.loc 2 96 2
#APP
# 96 "/tina-d1/lichee/brandy-2.0/spl/include/arch/riscv/asm/io.h" 1
	fence ow,ow
# 0 "" 2
	.loc 2 97 2
#NO_APP
	sw	a5,952(s0)
.LVL63:
.LBE1221:
.LBE1220:
	.loc 1 271 2
.LBB1222:
.LBB1223:
	.loc 2 138 2
	.loc 2 140 2
	.loc 2 140 6 is_stmt 0
	lw	a5,828(s0)
.LVL64:
	.loc 2 141 2 is_stmt 1
#APP
# 141 "/tina-d1/lichee/brandy-2.0/spl/include/arch/riscv/asm/io.h" 1
	fence ir,ir
# 0 "" 2
	.loc 2 142 2
.LVL65:
#NO_APP
.LBE1223:
.LBE1222:
	.loc 1 272 2
	.loc 1 272 52 is_stmt 0
	lhu	a4,86(s1)
	.loc 1 272 59
	li	a3,503316480
	slliw	a4,a4,25
	and	a4,a4,a3
	.loc 1 272 10
	or	a4,a4,a5
.LVL66:
	.loc 1 273 2 is_stmt 1
.LBB1224:
.LBB1225:
	.loc 2 96 2
#APP
# 96 "/tina-d1/lichee/brandy-2.0/spl/include/arch/riscv/asm/io.h" 1
	fence ow,ow
# 0 "" 2
	.loc 2 97 2
#NO_APP
	sw	a4,828(s0)
.LVL67:
.LBE1225:
.LBE1224:
	.loc 1 276 2
.LBB1226:
.LBB1227:
	.loc 2 138 2
	.loc 2 140 2
	.loc 2 140 6 is_stmt 0
	lw	a4,956(s0)
.LVL68:
	.loc 2 141 2 is_stmt 1
#APP
# 141 "/tina-d1/lichee/brandy-2.0/spl/include/arch/riscv/asm/io.h" 1
	fence ir,ir
# 0 "" 2
	.loc 2 142 2
.LVL69:
#NO_APP
.LBE1227:
.LBE1226:
	.loc 1 277 2
	.loc 1 277 52 is_stmt 0
	lw	a5,84(s1)
	srliw	a5,a5,20
	.loc 1 277 59
	slliw	a5,a5,25
	and	a5,a5,a3
	.loc 1 277 10
	or	a5,a5,a4
.LVL70:
	.loc 1 278 2 is_stmt 1
.LBB1228:
.LBB1229:
	.loc 2 96 2
#APP
# 96 "/tina-d1/lichee/brandy-2.0/spl/include/arch/riscv/asm/io.h" 1
	fence ow,ow
# 0 "" 2
	.loc 2 97 2
#NO_APP
	sw	a5,956(s0)
.LVL71:
.LBE1229:
.LBE1228:
	.loc 1 281 2
.LBB1230:
.LBB1231:
	.loc 2 138 2
	.loc 2 140 2
	.loc 2 140 6 is_stmt 0
	lw	a5,256(s0)
.LVL72:
	.loc 2 141 2 is_stmt 1
#APP
# 141 "/tina-d1/lichee/brandy-2.0/spl/include/arch/riscv/asm/io.h" 1
	fence ir,ir
# 0 "" 2
	.loc 2 142 2
.LVL73:
#NO_APP
.LBE1231:
.LBE1230:
	.loc 1 282 2
	.loc 1 283 2
.LBB1232:
.LBB1233:
	.loc 2 96 2
#APP
# 96 "/tina-d1/lichee/brandy-2.0/spl/include/arch/riscv/asm/io.h" 1
	fence ow,ow
# 0 "" 2
	.loc 2 97 2
#NO_APP
.LBE1233:
.LBE1232:
	.loc 1 282 10 is_stmt 0
	li	a4,67108864
	or	a5,a5,a4
.LVL74:
.LBB1235:
.LBB1234:
	.loc 2 97 2
	sw	a5,256(s0)
.LVL75:
.LBE1234:
.LBE1235:
	.loc 1 284 2 is_stmt 1
.LBB1236:
.LBB1237:
	.loc 1 59 3
	li	a0,1
	call	sdelay
.LVL76:
.LBE1237:
.LBE1236:
	.loc 1 287 2
	.loc 1 290 56 is_stmt 0
	li	a4,4096
	.loc 1 287 2
	li	a2,51392512
.LBB1239:
.LBB1238:
	.loc 1 59 3
	addi	s0,s0,576
.LBE1238:
.LBE1239:
	.loc 1 290 56
	addi	a4,a4,-256
	.loc 1 287 2
	addi	a3,a2,636
.LVL77:
.L19:
	.loc 1 289 3 is_stmt 1 discriminator 3
.LBB1240:
.LBB1241:
	.loc 2 138 2 discriminator 3
	.loc 2 140 2 discriminator 3
	.loc 2 140 6 is_stmt 0 discriminator 3
	lw	a1,0(s0)
.LVL78:
	.loc 2 141 2 is_stmt 1 discriminator 3
#APP
# 141 "/tina-d1/lichee/brandy-2.0/spl/include/arch/riscv/asm/io.h" 1
	fence ir,ir
# 0 "" 2
	.loc 2 142 2 discriminator 3
.LVL79:
#NO_APP
.LBE1241:
.LBE1240:
	.loc 1 290 3 discriminator 3
	.loc 1 290 50 is_stmt 0 discriminator 3
	lw	a5,80(s1)
	srliw	a5,a5,4
	.loc 1 290 56 discriminator 3
	slliw	a5,a5,8
	and	a5,a5,a4
	.loc 1 290 11 discriminator 3
	or	a5,a5,a1
	sext.w	a5,a5
.LVL80:
	.loc 1 291 3 is_stmt 1 discriminator 3
.LBB1242:
.LBB1243:
	.loc 2 96 2 discriminator 3
#APP
# 96 "/tina-d1/lichee/brandy-2.0/spl/include/arch/riscv/asm/io.h" 1
	fence ow,ow
# 0 "" 2
	.loc 2 97 2 discriminator 3
#NO_APP
	swia	a5,(s0),4,0
.LVL81:
.LBE1243:
.LBE1242:
	.loc 1 287 2 is_stmt 0 discriminator 3
	bne	s0,a3,.L19
	.loc 1 297 56
	li	a5,4096
.LVL82:
	.loc 1 294 2
	li	a3,51392512
	.loc 1 297 56
	addi	a1,a5,-256
	addi	a2,a2,552
	.loc 1 294 2
	addi	a5,a3,576
.LVL83:
.L20:
	.loc 1 296 3 is_stmt 1 discriminator 3
.LBB1244:
.LBB1245:
	.loc 2 138 2 discriminator 3
	.loc 2 140 2 discriminator 3
	.loc 2 140 6 is_stmt 0 discriminator 3
	lw	a0,0(a2)
.LVL84:
	.loc 2 141 2 is_stmt 1 discriminator 3
#APP
# 141 "/tina-d1/lichee/brandy-2.0/spl/include/arch/riscv/asm/io.h" 1
	fence ir,ir
# 0 "" 2
	.loc 2 142 2 discriminator 3
.LVL85:
#NO_APP
.LBE1245:
.LBE1244:
	.loc 1 297 3 discriminator 3
	.loc 1 297 50 is_stmt 0 discriminator 3
	lw	a4,80(s1)
	srliw	a4,a4,4
	.loc 1 297 56 discriminator 3
	slliw	a4,a4,8
	and	a4,a4,a1
	.loc 1 297 11 discriminator 3
	or	a4,a4,a0
	sext.w	a4,a4
.LVL86:
	.loc 1 298 3 is_stmt 1 discriminator 3
.LBB1246:
.LBB1247:
	.loc 2 96 2 discriminator 3
#APP
# 96 "/tina-d1/lichee/brandy-2.0/spl/include/arch/riscv/asm/io.h" 1
	fence ow,ow
# 0 "" 2
	.loc 2 97 2 discriminator 3
#NO_APP
	swia	a4,(a2),4,0
.LVL87:
.LBE1247:
.LBE1246:
	.loc 1 294 2 is_stmt 0 discriminator 3
	bne	a2,a5,.L20
	.loc 1 302 2 is_stmt 1
.LVL88:
.LBB1248:
.LBB1249:
	.loc 2 138 2
	.loc 2 140 2
	.loc 2 140 6 is_stmt 0
	lw	a5,536(a3)
.LVL89:
	.loc 2 141 2 is_stmt 1
#APP
# 141 "/tina-d1/lichee/brandy-2.0/spl/include/arch/riscv/asm/io.h" 1
	fence ir,ir
# 0 "" 2
	.loc 2 142 2
.LVL90:
#NO_APP
.LBE1249:
.LBE1248:
	.loc 1 303 2
	.loc 1 303 39 is_stmt 0
	lw	a4,80(s1)
	slliw	a4,a4,8
	and	a4,a4,a1
	.loc 1 303 10
	or	a4,a4,a5
	sext.w	a4,a4
.LVL91:
	.loc 1 304 2 is_stmt 1
.LBB1250:
.LBB1251:
	.loc 2 96 2
#APP
# 96 "/tina-d1/lichee/brandy-2.0/spl/include/arch/riscv/asm/io.h" 1
	fence ow,ow
# 0 "" 2
	.loc 2 97 2
#NO_APP
	sw	a4,536(a3)
.LVL92:
.LBE1251:
.LBE1250:
	.loc 1 305 2
.LBB1252:
.LBB1253:
	.loc 2 138 2
	.loc 2 140 2
	.loc 2 140 6 is_stmt 0
	lw	a5,540(a3)
.LVL93:
	.loc 2 141 2 is_stmt 1
#APP
# 141 "/tina-d1/lichee/brandy-2.0/spl/include/arch/riscv/asm/io.h" 1
	fence ir,ir
# 0 "" 2
	.loc 2 142 2
.LVL94:
#NO_APP
.LBE1253:
.LBE1252:
	.loc 1 306 2
	.loc 1 306 53 is_stmt 0
	lw	a4,80(s1)
	and	a4,a4,a1
	.loc 1 306 10
	or	a4,a4,a5
	sext.w	a4,a4
.LVL95:
	.loc 1 307 2 is_stmt 1
.LBB1254:
.LBB1255:
	.loc 2 96 2
#APP
# 96 "/tina-d1/lichee/brandy-2.0/spl/include/arch/riscv/asm/io.h" 1
	fence ow,ow
# 0 "" 2
	.loc 2 97 2
#NO_APP
	sw	a4,540(a3)
.LVL96:
.LBE1255:
.LBE1254:
	.loc 1 308 2
.LBB1256:
.LBB1257:
	.loc 2 138 2
	.loc 2 140 2
	.loc 2 140 6 is_stmt 0
	lw	a4,640(a3)
.LVL97:
	.loc 2 141 2 is_stmt 1
#APP
# 141 "/tina-d1/lichee/brandy-2.0/spl/include/arch/riscv/asm/io.h" 1
	fence ir,ir
# 0 "" 2
	.loc 2 142 2
.LVL98:
#NO_APP
.LBE1257:
.LBE1256:
	.loc 1 309 2
	.loc 1 309 48 is_stmt 0
	lw	a5,80(s1)
	srliw	a5,a5,12
	.loc 1 309 55
	slliw	a5,a5,8
	and	a5,a5,a1
	.loc 1 309 10
	or	a5,a5,a4
	sext.w	a5,a5
.LVL99:
	.loc 1 310 2 is_stmt 1
.LBB1258:
.LBB1259:
	.loc 2 96 2
#APP
# 96 "/tina-d1/lichee/brandy-2.0/spl/include/arch/riscv/asm/io.h" 1
	fence ow,ow
# 0 "" 2
	.loc 2 97 2
#NO_APP
.LBE1259:
.LBE1258:
	.loc 1 314 1 is_stmt 0
	ld	ra,24(sp)
	.cfi_restore 1
	ld	s0,8(sp)
	.cfi_restore 8
.LBB1261:
.LBB1260:
	.loc 2 97 2
	sw	a5,640(a3)
.LVL100:
.LBE1260:
.LBE1261:
	.loc 1 314 1
	ld	s1,16(sp)
	.cfi_restore 9
.LVL101:
	addi	sp,sp,32
	.cfi_def_cfa_offset 0
	jr	ra
	.cfi_endproc
.LFE46:
	.size	eye_delay_compensation, .-eye_delay_compensation
	.section	.text.bit_delay_compensation,"ax",@progbits
	.align	1
	.globl	bit_delay_compensation
	.type	bit_delay_compensation, @function
bit_delay_compensation:
.LFB47:
	.loc 1 322 1 is_stmt 1
	.cfi_startproc
.LVL102:
	.loc 1 323 2
	.loc 1 324 2
	.loc 1 322 1 is_stmt 0
	addi	sp,sp,-368
	.cfi_def_cfa_offset 368
	.loc 1 324 15
	lui	a1,%hi(.LANCHOR0)
	.loc 1 322 1
	sd	s0,352(sp)
	.loc 1 324 15
	li	a2,176
	.cfi_offset 8, -16
	addi	s0,a1,%lo(.LANCHOR0)
	mv	a0,sp
.LVL103:
	addi	a1,a1,%lo(.LANCHOR0)
	.loc 1 322 1
	sd	ra,360(sp)
	.cfi_offset 1, -8
	.loc 1 324 15
	call	memcpy
.LVL104:
	.loc 1 329 2 is_stmt 1
	.loc 1 329 15 is_stmt 0
	addi	a6,sp,176
	li	a2,176
	addi	a1,s0,176
	mv	a0,a6
	call	memcpy
.LVL105:
.LBB1262:
.LBB1263:
	.loc 2 140 6
	li	a5,51392512
.LBE1263:
.LBE1262:
	.loc 1 329 15
	mv	a6,a0
	.loc 1 333 2 is_stmt 1
.LVL106:
.LBB1265:
.LBB1264:
	.loc 2 138 2
	.loc 2 140 2
	.loc 2 140 6 is_stmt 0
	lw	a4,256(a5)
.LVL107:
	.loc 2 141 2 is_stmt 1
#APP
# 141 "/tina-d1/lichee/brandy-2.0/spl/include/arch/riscv/asm/io.h" 1
	fence ir,ir
# 0 "" 2
	.loc 2 142 2
.LVL108:
#NO_APP
.LBE1264:
.LBE1265:
	.loc 1 334 2
	.loc 1 335 2
.LBB1266:
.LBB1267:
	.loc 2 96 2
#APP
# 96 "/tina-d1/lichee/brandy-2.0/spl/include/arch/riscv/asm/io.h" 1
	fence ow,ow
# 0 "" 2
	.loc 2 97 2
#NO_APP
.LBE1267:
.LBE1266:
	.loc 1 334 10 is_stmt 0
	li	a3,-67108864
	addi	a3,a3,-1
	and	a4,a4,a3
.LVL109:
	.loc 1 337 2
	li	a1,51392512
.LBB1270:
.LBB1268:
	.loc 2 97 2
	sw	a4,256(a5)
.LVL110:
.LBE1268:
.LBE1270:
	.loc 1 337 2 is_stmt 1
.LBB1271:
.LBB1269:
	.loc 2 97 2 is_stmt 0
	li	a0,0
	addi	a5,a5,784
.LBE1269:
.LBE1271:
	.loc 1 339 3
	li	a7,44
	.loc 1 337 2
	addi	t1,a1,1296
.LVL111:
.L27:
	.loc 1 322 1
	mv	a2,a0
	li	a3,0
.LVL112:
.L28:
	.loc 1 341 4 is_stmt 1 discriminator 3
	.loc 1 341 61 is_stmt 0 discriminator 3
	lrw	a4,a6,a2,0
	.loc 1 341 12 discriminator 3
	lrw	t3,sp,a2,0
	.loc 1 341 61 discriminator 3
	slliw	a4,a4,8
	.loc 1 341 12 discriminator 3
	addw	a4,a4,t3
.LVL113:
	.loc 1 342 4 is_stmt 1 discriminator 3
.LBB1272:
.LBB1273:
	.loc 2 138 2 discriminator 3
	.loc 2 140 2 discriminator 3
	.loc 2 140 6 is_stmt 0 discriminator 3
	lrw	t3,a5,a3,0
.LVL114:
	.loc 2 141 2 is_stmt 1 discriminator 3
#APP
# 141 "/tina-d1/lichee/brandy-2.0/spl/include/arch/riscv/asm/io.h" 1
	fence ir,ir
# 0 "" 2
	.loc 2 142 2 discriminator 3
.LVL115:
#NO_APP
.LBE1273:
.LBE1272:
	.loc 1 343 4 discriminator 3
	.loc 1 344 4 discriminator 3
.LBB1274:
.LBB1275:
	.loc 2 96 2 discriminator 3
#APP
# 96 "/tina-d1/lichee/brandy-2.0/spl/include/arch/riscv/asm/io.h" 1
	fence ow,ow
# 0 "" 2
	.loc 2 97 2 discriminator 3
#NO_APP
.LBE1275:
.LBE1274:
	.loc 1 343 12 is_stmt 0 discriminator 3
	addw	a4,a4,t3
.LVL116:
.LBB1277:
.LBB1276:
	.loc 2 97 2 discriminator 3
	srw	a4,a5,a3,0
.LVL117:
	addi	a3,a3,4
	addi	a2,a2,4
.LVL118:
.LBE1276:
.LBE1277:
	.loc 1 339 3 discriminator 3
	bne	a3,a7,.L28
	addi	a5,a5,128
	addi	a0,a0,44
	.loc 1 337 2 discriminator 2
	bne	a5,t1,.L27
	.loc 1 348 2 is_stmt 1
.LVL119:
.LBB1278:
.LBB1279:
	.loc 2 138 2
	.loc 2 140 2
	.loc 2 140 6 is_stmt 0
	lw	a5,256(a1)
.LVL120:
	.loc 2 141 2 is_stmt 1
#APP
# 141 "/tina-d1/lichee/brandy-2.0/spl/include/arch/riscv/asm/io.h" 1
	fence ir,ir
# 0 "" 2
	.loc 2 142 2
.LVL121:
#NO_APP
.LBE1279:
.LBE1278:
	.loc 1 349 2
	.loc 1 350 2
.LBB1280:
.LBB1281:
	.loc 2 96 2
#APP
# 96 "/tina-d1/lichee/brandy-2.0/spl/include/arch/riscv/asm/io.h" 1
	fence ow,ow
# 0 "" 2
	.loc 2 97 2
#NO_APP
.LBE1281:
.LBE1280:
	.loc 1 349 10 is_stmt 0
	li	a4,67108864
	.loc 1 351 1
	ld	ra,360(sp)
	.cfi_restore 1
	ld	s0,352(sp)
	.cfi_restore 8
	.loc 1 349 10
	or	a5,a5,a4
.LVL122:
.LBB1283:
.LBB1282:
	.loc 2 97 2
	sw	a5,256(a1)
.LVL123:
.LBE1282:
.LBE1283:
	.loc 1 351 1
	addi	sp,sp,368
	.cfi_def_cfa_offset 0
	jr	ra
	.cfi_endproc
.LFE47:
	.size	bit_delay_compensation, .-bit_delay_compensation
	.section	.text.set_master_priority_pad,"ax",@progbits
	.align	1
	.globl	set_master_priority_pad
	.type	set_master_priority_pad, @function
set_master_priority_pad:
.LFB48:
	.loc 1 359 1 is_stmt 1
	.cfi_startproc
.LVL124:
	.loc 1 360 2
	.loc 1 362 2
.LBB1284:
.LBB1285:
	.loc 2 138 2
	.loc 2 140 2
	.loc 2 140 6 is_stmt 0
	li	a5,51388416
	lw	a4,12(a5)
.LVL125:
	.loc 2 141 2 is_stmt 1
#APP
# 141 "/tina-d1/lichee/brandy-2.0/spl/include/arch/riscv/asm/io.h" 1
	fence ir,ir
# 0 "" 2
	.loc 2 142 2
.LVL126:
#NO_APP
.LBE1285:
.LBE1284:
	.loc 1 363 2
	.loc 1 363 10 is_stmt 0
	li	a3,-4096
	and	a4,a4,a3
.LVL127:
	.loc 1 364 2 is_stmt 1
	.loc 1 364 30 is_stmt 0
	lw	a3,0(a0)
	srliw	a3,a3,1
	.loc 1 364 34
	addiw	a3,a3,-1
	.loc 1 364 10
	or	a4,a4,a3
.LVL128:
	sext.w	a4,a4
.LVL129:
	.loc 1 365 2 is_stmt 1
.LBB1286:
.LBB1287:
	.loc 2 96 2
#APP
# 96 "/tina-d1/lichee/brandy-2.0/spl/include/arch/riscv/asm/io.h" 1
	fence ow,ow
# 0 "" 2
	.loc 2 97 2
#NO_APP
	sw	a4,12(a5)
.LVL130:
.LBE1287:
.LBE1286:
	.loc 1 366 2
.LBB1288:
.LBB1289:
	.loc 2 96 2
#APP
# 96 "/tina-d1/lichee/brandy-2.0/spl/include/arch/riscv/asm/io.h" 1
	fence ow,ow
# 0 "" 2
	.loc 2 97 2
#NO_APP
	li	a4,65536
.LVL131:
	sw	a4,512(a5)
.LVL132:
.LBE1289:
.LBE1288:
	.loc 1 369 2
.LBB1290:
.LBB1291:
	.loc 2 96 2
#APP
# 96 "/tina-d1/lichee/brandy-2.0/spl/include/arch/riscv/asm/io.h" 1
	fence ow,ow
# 0 "" 2
	.loc 2 97 2
#NO_APP
	li	a4,16777216
	addiw	a4,a4,9
	sw	a4,528(a5)
.LVL133:
.LBE1291:
.LBE1290:
	.loc 1 370 2
.LBB1292:
.LBB1293:
	.loc 2 96 2
#APP
# 96 "/tina-d1/lichee/brandy-2.0/spl/include/arch/riscv/asm/io.h" 1
	fence ow,ow
# 0 "" 2
	.loc 2 97 2
#NO_APP
	li	a3,5242880
	addiw	a3,a3,100
	sw	a3,532(a5)
.LVL134:
.LBE1293:
.LBE1292:
	.loc 1 372 2
.LBB1294:
.LBB1295:
	.loc 2 96 2
#APP
# 96 "/tina-d1/lichee/brandy-2.0/spl/include/arch/riscv/asm/io.h" 1
	fence ow,ow
# 0 "" 2
	.loc 2 97 2
#NO_APP
	li	a2,33554432
	addiw	a2,a2,13
	sw	a2,560(a5)
.LVL135:
.LBE1295:
.LBE1294:
	.loc 1 373 2
.LBB1296:
.LBB1297:
	.loc 2 96 2
#APP
# 96 "/tina-d1/lichee/brandy-2.0/spl/include/arch/riscv/asm/io.h" 1
	fence ow,ow
# 0 "" 2
	.loc 2 97 2
#NO_APP
	li	a2,6291456
	addiw	a2,a2,256
	sw	a2,564(a5)
.LVL136:
.LBE1297:
.LBE1296:
	.loc 1 375 2
.LBB1298:
.LBB1299:
	.loc 2 96 2
#APP
# 96 "/tina-d1/lichee/brandy-2.0/spl/include/arch/riscv/asm/io.h" 1
	fence ow,ow
# 0 "" 2
	.loc 2 97 2
#NO_APP
	sw	a4,576(a5)
.LVL137:
.LBE1299:
.LBE1298:
	.loc 1 376 2
.LBB1300:
.LBB1301:
	.loc 2 96 2
#APP
# 96 "/tina-d1/lichee/brandy-2.0/spl/include/arch/riscv/asm/io.h" 1
	fence ow,ow
# 0 "" 2
	.loc 2 97 2
#NO_APP
	sw	a3,580(a5)
.LVL138:
.LBE1301:
.LBE1300:
	.loc 1 378 2
.LBB1302:
.LBB1303:
	.loc 2 96 2
#APP
# 96 "/tina-d1/lichee/brandy-2.0/spl/include/arch/riscv/asm/io.h" 1
	fence ow,ow
# 0 "" 2
	.loc 2 97 2
#NO_APP
	li	a3,6553600
	addiw	a3,a3,521
	sw	a3,608(a5)
.LVL139:
.LBE1303:
.LBE1302:
	.loc 1 379 2
.LBB1304:
.LBB1305:
	.loc 2 96 2
#APP
# 96 "/tina-d1/lichee/brandy-2.0/spl/include/arch/riscv/asm/io.h" 1
	fence ow,ow
# 0 "" 2
	.loc 2 97 2
#NO_APP
	li	a3,2097152
	addiw	a3,a3,64
	sw	a3,612(a5)
.LVL140:
.LBE1305:
.LBE1304:
	.loc 1 381 2
.LBB1306:
.LBB1307:
	.loc 2 96 2
#APP
# 96 "/tina-d1/lichee/brandy-2.0/spl/include/arch/riscv/asm/io.h" 1
	fence ow,ow
# 0 "" 2
	.loc 2 97 2
#NO_APP
	sw	a4,656(a5)
.LVL141:
.LBE1307:
.LBE1306:
	.loc 1 382 2
.LBB1308:
.LBB1309:
	.loc 2 96 2
#APP
# 96 "/tina-d1/lichee/brandy-2.0/spl/include/arch/riscv/asm/io.h" 1
	fence ow,ow
# 0 "" 2
	.loc 2 97 2
#NO_APP
	li	a4,4194304
	addiw	a4,a4,128
	sw	a4,660(a5)
.LVL142:
.LBE1309:
.LBE1308:
	.loc 1 384 2
.LBB1310:
.LBB1311:
	.loc 2 96 2
#APP
# 96 "/tina-d1/lichee/brandy-2.0/spl/include/arch/riscv/asm/io.h" 1
	fence ow,ow
# 0 "" 2
	.loc 2 97 2
#NO_APP
	sw	zero,1136(a5)
.LVL143:
.LBE1311:
.LBE1310:
	.loc 1 385 2
.LBB1312:
.LBB1313:
	.loc 2 96 2
#APP
# 96 "/tina-d1/lichee/brandy-2.0/spl/include/arch/riscv/asm/io.h" 1
	fence ow,ow
# 0 "" 2
	.loc 2 97 2
#NO_APP
	sw	zero,1140(a5)
.LVL144:
.LBE1313:
.LBE1312:
	.loc 1 387 2
.LBB1314:
.LBB1315:
	.loc 2 96 2
#APP
# 96 "/tina-d1/lichee/brandy-2.0/spl/include/arch/riscv/asm/io.h" 1
	fence ow,ow
# 0 "" 2
	.loc 2 97 2
#NO_APP
	li	a4,260059136
	li	a5,51392512
.LVL145:
	addiw	a4,a4,-251
	sw	a4,448(a5)
.LVL146:
.LBE1315:
.LBE1314:
	.loc 1 388 2
.LBB1316:
.LBB1317:
	.loc 2 96 2
#APP
# 96 "/tina-d1/lichee/brandy-2.0/spl/include/arch/riscv/asm/io.h" 1
	fence ow,ow
# 0 "" 2
	.loc 2 97 2
#NO_APP
	li	a4,251658240
	addiw	a4,a4,255
	sw	a4,456(a5)
.LVL147:
.LBE1317:
.LBE1316:
	.loc 1 389 2
.LBB1318:
.LBB1319:
	.loc 2 96 2
#APP
# 96 "/tina-d1/lichee/brandy-2.0/spl/include/arch/riscv/asm/io.h" 1
	fence ow,ow
# 0 "" 2
	.loc 2 97 2
#NO_APP
	li	a4,1056964608
	addiw	a4,a4,95
	sw	a4,464(a5)
.LVL148:
.LBE1319:
.LBE1318:
	.loc 1 390 50
	.loc 1 391 1 is_stmt 0
	ret
	.cfi_endproc
.LFE48:
	.size	set_master_priority_pad, .-set_master_priority_pad
	.section	.text.auto_cal_timing,"ax",@progbits
	.align	1
	.globl	auto_cal_timing
	.type	auto_cal_timing, @function
auto_cal_timing:
.LFB49:
	.loc 1 399 1 is_stmt 1
	.cfi_startproc
.LVL149:
	.loc 1 400 2
	.loc 1 401 2
	.loc 1 401 19 is_stmt 0
	mulw	a1,a0,a1
.LVL150:
	.loc 1 402 2 is_stmt 1
	.loc 1 401 54 is_stmt 0
	li	a5,1000
	.loc 1 401 72
	remuw	a0,a1,a5
.LVL151:
	.loc 1 401 26
	divuw	a1,a1,a5
.LVL152:
	.loc 1 401 72
	snez	a0,a0
	.loc 1 403 1
	addw	a0,a0,a1
	ret
	.cfi_endproc
.LFE49:
	.size	auto_cal_timing, .-auto_cal_timing
	.section	.text.auto_set_timing_para,"ax",@progbits
	.align	1
	.globl	auto_set_timing_para
	.type	auto_set_timing_para, @function
auto_set_timing_para:
.LFB50:
	.loc 1 411 1 is_stmt 1
	.cfi_startproc
.LVL153:
	.loc 1 412 2
	.loc 1 413 2
	.loc 1 414 2
	.loc 1 415 2
	.loc 1 416 2
	.loc 1 417 2
	.loc 1 418 2
	.loc 1 419 2
	.loc 1 420 2
	.loc 1 421 2
	.loc 1 422 2
	.loc 1 423 2
	.loc 1 424 2
	.loc 1 425 2
	.loc 1 426 2
	.loc 1 427 2
	.loc 1 428 2
	.loc 1 429 2
	.loc 1 430 2
	.loc 1 431 2
	.loc 1 432 2
	.loc 1 433 2
	.loc 1 434 2
	.loc 1 435 2
	.loc 1 436 2
	.loc 1 437 2
	.loc 1 438 2
	.loc 1 439 2
	.loc 1 440 2
	.loc 1 441 2
	.loc 1 442 2
	.loc 1 443 2
	.loc 1 444 2
	.loc 1 445 2
	.loc 1 446 2
	.loc 1 447 2
	.loc 1 448 2
	.loc 1 449 2
	.loc 1 450 2
	.loc 1 452 2
	.loc 1 453 2
	.loc 1 453 25 is_stmt 0
	lw	a5,92(a0)
	.loc 1 411 1
	addi	sp,sp,-208
	.cfi_def_cfa_offset 208
	sd	s4,160(sp)
	sd	s5,152(sp)
	sd	s8,128(sp)
	.loc 1 453 25
	sd	a5,80(sp)
.LVL154:
	.loc 1 455 2 is_stmt 1
	.loc 1 411 1 is_stmt 0
	sd	ra,200(sp)
	sd	s0,192(sp)
	sd	s1,184(sp)
	sd	s2,176(sp)
	sd	s3,168(sp)
	sd	s6,144(sp)
	sd	s7,136(sp)
	sd	s9,120(sp)
	sd	s10,112(sp)
	sd	s11,104(sp)
	.cfi_offset 20, -48
	.cfi_offset 21, -56
	.cfi_offset 24, -80
	.cfi_offset 1, -8
	.cfi_offset 8, -16
	.cfi_offset 9, -24
	.cfi_offset 18, -32
	.cfi_offset 19, -40
	.cfi_offset 22, -64
	.cfi_offset 23, -72
	.cfi_offset 25, -88
	.cfi_offset 26, -96
	.cfi_offset 27, -104
	.loc 1 458 22
	andi	a5,a5,2
	.loc 1 411 1
	mv	s5,a0
	.loc 1 456 7
	lwd	s4,s8,(a0),0,3
.LVL155:
	.loc 1 458 2 is_stmt 1
	.loc 1 458 4 is_stmt 0
	beqz	a5,.L35
	.loc 1 460 48 is_stmt 1
	.loc 1 462 3
	.loc 1 462 17 is_stmt 0
	lw	s9,40(a0)
	.loc 1 468 17
	lw	a2,44(a0)
	.loc 1 475 18
	lw	s2,48(a0)
	.loc 1 462 8
	extu	a5,s9,21+3-1,21
	sd	a5,88(sp)
.LVL156:
	.loc 1 463 3 is_stmt 1
	.loc 1 470 8 is_stmt 0
	extu	a5,a2,15+5-1,15
	sd	a5,64(sp)
	.loc 1 472 7
	extu	a5,a2,6+5-1,6
	sd	a5,0(sp)
	.loc 1 475 9
	extu	a5,s2,12+9-1,12
	.loc 1 476 9
	extu	s2,s2,0+12-1,0
	.loc 1 463 8
	extu	s10,s9,15+6-1,15
.LVL157:
	.loc 1 464 3 is_stmt 1
	.loc 1 464 8 is_stmt 0
	extu	s7,s9,11+4-1,11
.LVL158:
	.loc 1 465 3 is_stmt 1
	.loc 1 465 8 is_stmt 0
	extu	s3,s9,6+5-1,6
.LVL159:
	.loc 1 466 3 is_stmt 1
	.loc 1 468 7 is_stmt 0
	extu	a6,a2,23+5-1,23
	.loc 1 466 8
	andi	s9,s9,63
.LVL160:
	.loc 1 468 3 is_stmt 1
	.loc 1 469 3
	.loc 1 469 8 is_stmt 0
	extu	s1,a2,20+3-1,20
.LVL161:
	.loc 1 470 3 is_stmt 1
	.loc 1 471 3
	.loc 1 471 7 is_stmt 0
	extu	s6,a2,11+4-1,11
.LVL162:
	.loc 1 472 3 is_stmt 1
	.loc 1 473 3
	.loc 1 473 8 is_stmt 0
	andi	s11,a2,63
.LVL163:
	.loc 1 475 3 is_stmt 1
	.loc 1 475 9 is_stmt 0
	sd	a5,8(sp)
.LVL164:
	.loc 1 476 3 is_stmt 1
	.loc 1 476 9 is_stmt 0
	sext.w	s2,s2
.LVL165:
.L36:
	.loc 1 614 61 is_stmt 1
	.loc 1 617 2
	lw	a5,36(s5)
	sd	a5,72(sp)
	lw	a5,28(s5)
	sd	a5,56(sp)
	li	a5,3
	beq	s8,a5,.L57
	bgtu	s8,a5,.L58
	li	a5,2
	beq	s8,a5,.L59
.L84:
	.loc 1 446 15 is_stmt 0
	li	a5,8
	sd	a5,48(sp)
	.loc 1 449 15
	li	t1,4
	.loc 1 448 15
	li	t4,3
	.loc 1 447 15
	li	t6,4
	.loc 1 445 15
	li	t3,27
	.loc 1 444 15
	li	s6,12
.LVL166:
	.loc 1 431 15
	li	s8,2
.LVL167:
	.loc 1 429 15
	li	t0,6
	.loc 1 428 15
	li	t5,2
	.loc 1 427 15
	li	a1,0
	.loc 1 426 15
	li	a5,3
	.loc 1 425 15
	li	a0,3
	.loc 1 424 15
	li	a7,1
	.loc 1 423 15
	li	a4,1
	.loc 1 422 15
	li	s0,0
	.loc 1 421 15
	li	t2,0
	.loc 1 420 15
	li	s1,0
.LVL168:
	.loc 1 419 15
	li	a3,0
	.loc 1 418 15
	sd	zero,40(sp)
	.loc 1 417 15
	sd	zero,32(sp)
	.loc 1 416 15
	sd	zero,24(sp)
	.loc 1 415 15
	sd	zero,16(sp)
.LVL169:
.L60:
	.loc 1 774 2 is_stmt 1
	.loc 1 774 4 is_stmt 0
	ld	a2,64(sp)
	ld	s4,0(sp)
	addw	s4,s4,a2
	addiw	a2,a0,2
	bgeu	s4,a2,.L66
	.loc 1 775 3 is_stmt 1
	.loc 1 775 8 is_stmt 0
	ld	a2,0(sp)
	subw	s4,a0,a2
	addiw	a2,s4,2
	sd	a2,64(sp)
.LVL170:
.L66:
	.loc 1 780 3 is_stmt 1
	.loc 1 780 5 is_stmt 0
	lhu	s4,26(s5)
	bnez	s4,.L67
	.loc 1 781 4 is_stmt 1
	.loc 1 781 19 is_stmt 0
	sw	a3,24(s5)
.L67:
	.loc 1 782 3 is_stmt 1
	.loc 1 782 5 is_stmt 0
	ld	a3,56(sp)
.LVL171:
	extu	a3,a3,16+16-1,16
	bnez	a3,.L68
	.loc 1 783 4 is_stmt 1
	.loc 1 783 19 is_stmt 0
	sw	s1,28(s5)
.L68:
	.loc 1 784 3 is_stmt 1
	.loc 1 784 5 is_stmt 0
	lhu	a3,34(s5)
	bnez	a3,.L69
	.loc 1 785 4 is_stmt 1
	.loc 1 785 19 is_stmt 0
	sw	t2,32(s5)
.L69:
	.loc 1 786 3 is_stmt 1
	.loc 1 786 5 is_stmt 0
	ld	a3,72(sp)
	extu	a3,a3,16+16-1,16
	bnez	a3,.L70
	.loc 1 787 4 is_stmt 1
	.loc 1 787 19 is_stmt 0
	sw	s0,36(s5)
.L70:
	.loc 1 789 3 is_stmt 1
	lhu	t2,24(s5)
.LVL172:
.LBB1320:
.LBB1321:
	.loc 2 96 2
#APP
# 96 "/tina-d1/lichee/brandy-2.0/spl/include/arch/riscv/asm/io.h" 1
	fence ow,ow
# 0 "" 2
	.loc 2 97 2
#NO_APP
	li	a3,51392512
	sw	t2,48(a3)
.LVL173:
.LBE1321:
.LBE1320:
	.loc 1 790 3
	lhu	t2,28(s5)
.LVL174:
.LBB1322:
.LBB1323:
	.loc 2 96 2
#APP
# 96 "/tina-d1/lichee/brandy-2.0/spl/include/arch/riscv/asm/io.h" 1
	fence ow,ow
# 0 "" 2
	.loc 2 97 2
#NO_APP
	sw	t2,52(a3)
.LVL175:
.LBE1323:
.LBE1322:
	.loc 1 791 3
	lhu	t2,32(s5)
.LVL176:
.LBB1324:
.LBB1325:
	.loc 2 96 2
#APP
# 96 "/tina-d1/lichee/brandy-2.0/spl/include/arch/riscv/asm/io.h" 1
	fence ow,ow
# 0 "" 2
	.loc 2 97 2
#NO_APP
	sw	t2,56(a3)
.LVL177:
.LBE1325:
.LBE1324:
	.loc 1 792 3
	lhu	t2,36(s5)
.LVL178:
.LBB1326:
.LBB1327:
	.loc 2 96 2
#APP
# 96 "/tina-d1/lichee/brandy-2.0/spl/include/arch/riscv/asm/io.h" 1
	fence ow,ow
# 0 "" 2
	.loc 2 97 2
#NO_APP
	sw	t2,60(a3)
.LVL179:
.LBE1327:
.LBE1326:
	.loc 1 793 3
	lw	t2,12(s5)
	extu	t2,t2,4+2-1,4
.LVL180:
.LBB1328:
.LBB1329:
	.loc 2 96 2
#APP
# 96 "/tina-d1/lichee/brandy-2.0/spl/include/arch/riscv/asm/io.h" 1
	fence ow,ow
# 0 "" 2
	.loc 2 97 2
#NO_APP
	sw	t2,44(a3)
.LVL181:
.LBE1329:
.LBE1328:
	.loc 1 795 70
	.loc 1 796 70
	.loc 1 797 70
	.loc 1 798 70
	.loc 1 804 2
	.loc 1 805 60
	.loc 1 806 2
.LBB1330:
.LBB1331:
	.loc 2 96 2
#APP
# 96 "/tina-d1/lichee/brandy-2.0/spl/include/arch/riscv/asm/io.h" 1
	fence ow,ow
# 0 "" 2
	.loc 2 97 2
#NO_APP
.LBE1331:
.LBE1330:
	.loc 1 804 33 is_stmt 0
	slliw	s10,s10,16
.LVL182:
	.loc 1 804 10
	or	s10,s11,s10
	.loc 1 804 18
	slliw	t2,s6,24
	.loc 1 804 10
	or	s10,s10,t2
	.loc 1 804 51
	slliw	t3,t3,8
.LVL183:
	.loc 1 804 10
	or	s10,s10,t3
.LBB1333:
.LBB1332:
	.loc 2 97 2
	sw	s10,88(a3)
.LVL184:
.LBE1332:
.LBE1333:
	.loc 1 807 2 is_stmt 1
	.loc 1 808 60
	.loc 1 809 2
.LBB1334:
.LBB1335:
	.loc 2 96 2
#APP
# 96 "/tina-d1/lichee/brandy-2.0/spl/include/arch/riscv/asm/io.h" 1
	fence ow,ow
# 0 "" 2
	.loc 2 97 2
#NO_APP
.LBE1335:
.LBE1334:
	.loc 1 807 32 is_stmt 0
	ld	a2,64(sp)
	.loc 1 807 17
	slliw	a6,a6,16
.LVL185:
	.loc 1 807 10
	or	a6,s9,a6
	.loc 1 807 32
	slliw	s4,a2,8
	.loc 1 807 10
	or	a6,a6,s4
.LBB1337:
.LBB1336:
	.loc 2 97 2
	sw	a6,92(a3)
.LVL186:
.LBE1336:
.LBE1337:
	.loc 1 810 2 is_stmt 1
	.loc 1 811 60
	.loc 1 812 2
.LBB1338:
.LBB1339:
	.loc 2 96 2
#APP
# 96 "/tina-d1/lichee/brandy-2.0/spl/include/arch/riscv/asm/io.h" 1
	fence ow,ow
# 0 "" 2
	.loc 2 97 2
#NO_APP
.LBE1339:
.LBE1338:
	.loc 1 810 18 is_stmt 0
	slliw	s1,a5,24
.LVL187:
	.loc 1 810 10
	ld	a5,48(sp)
.LVL188:
	.loc 1 810 32
	slliw	a0,a0,16
.LVL189:
	.loc 1 810 25
	or	s1,s1,a0
	.loc 1 810 10
	or	s1,s1,a5
	.loc 1 810 49
	slliw	t6,t6,8
.LVL190:
	.loc 1 810 10
	or	t6,s1,t6
.LBB1341:
.LBB1340:
	.loc 2 97 2
	sw	t6,96(a3)
.LVL191:
.LBE1340:
.LBE1341:
	.loc 1 813 2 is_stmt 1
	.loc 1 814 60
	.loc 1 815 2
.LBB1342:
.LBB1343:
	.loc 2 96 2
#APP
# 96 "/tina-d1/lichee/brandy-2.0/spl/include/arch/riscv/asm/io.h" 1
	fence ow,ow
# 0 "" 2
	.loc 2 97 2
#NO_APP
.LBE1343:
.LBE1342:
	.loc 1 813 33 is_stmt 0
	slliw	t5,t5,12
.LVL192:
	.loc 1 813 18
	slliw	a1,a1,16
.LVL193:
	.loc 1 813 25
	or	a1,a1,t5
	.loc 1 813 10
	or	t0,a1,t0
.LVL194:
.LBB1345:
.LBB1344:
	.loc 2 97 2
	sw	t0,100(a3)
.LVL195:
.LBE1344:
.LBE1345:
	.loc 1 816 2 is_stmt 1
	.loc 1 817 60
	.loc 1 818 2
.LBB1346:
.LBB1347:
	.loc 2 96 2
#APP
# 96 "/tina-d1/lichee/brandy-2.0/spl/include/arch/riscv/asm/io.h" 1
	fence ow,ow
# 0 "" 2
	.loc 2 97 2
#NO_APP
.LBE1347:
.LBE1346:
	.loc 1 816 33 is_stmt 0
	ld	a5,88(sp)
	.loc 1 816 18
	slliw	s3,s3,24
.LVL196:
	.loc 1 816 48
	slliw	s7,s7,8
.LVL197:
	.loc 1 816 33
	slliw	a5,a5,16
	.loc 1 816 25
	or	s3,s3,a5
	.loc 1 816 10
	ld	a5,0(sp)
	or	t3,s3,a5
	or	s7,t3,s7
.LBB1349:
.LBB1348:
	.loc 2 97 2
	sw	s7,104(a3)
.LVL198:
.LBE1348:
.LBE1349:
	.loc 1 819 2 is_stmt 1
	.loc 1 820 60
	.loc 1 821 2
.LBB1350:
.LBB1351:
	.loc 2 96 2
#APP
# 96 "/tina-d1/lichee/brandy-2.0/spl/include/arch/riscv/asm/io.h" 1
	fence ow,ow
# 0 "" 2
	.loc 2 97 2
#NO_APP
.LBE1351:
.LBE1350:
	.loc 1 819 20 is_stmt 0
	slliw	a5,t1,24
	.loc 1 819 37
	slliw	t1,t1,16
.LVL199:
	.loc 1 819 27
	or	t1,a5,t1
	.loc 1 819 10
	or	s8,t1,s8
.LVL200:
	.loc 1 819 54
	slliw	t4,t4,8
.LVL201:
	.loc 1 819 10
	or	t4,s8,t4
.LBB1353:
.LBB1352:
	.loc 2 97 2
	sw	t4,108(a3)
.LVL202:
.LBE1352:
.LBE1353:
	.loc 1 823 2 is_stmt 1
.LBB1354:
.LBB1355:
	.loc 2 138 2
	.loc 2 140 2
	.loc 2 140 6 is_stmt 0
	lw	a5,120(a3)
.LVL203:
	.loc 2 141 2 is_stmt 1
#APP
# 141 "/tina-d1/lichee/brandy-2.0/spl/include/arch/riscv/asm/io.h" 1
	fence ir,ir
# 0 "" 2
	.loc 2 142 2
.LVL204:
#NO_APP
.LBE1355:
.LBE1354:
	.loc 1 824 2
	.loc 1 825 2
	.loc 1 826 2
	.loc 1 827 2
	.loc 1 828 4 is_stmt 0
	lw	a1,0(s5)
	li	a3,268369920
	and	a5,a5,a3
.LVL205:
	.loc 1 828 2 is_stmt 1
	.loc 1 828 4 is_stmt 0
	li	a3,800
	bgtu	a1,a3,.L71
	.loc 1 829 3 is_stmt 1
	.loc 1 829 11 is_stmt 0
	li	a3,-268410880
.L86:
	.loc 1 831 11
	addi	a3,a3,1536
	or	a5,a5,a3
.LVL206:
	.loc 1 833 2 is_stmt 1
	.loc 1 834 2
.LBB1356:
.LBB1357:
	.loc 2 96 2
#APP
# 96 "/tina-d1/lichee/brandy-2.0/spl/include/arch/riscv/asm/io.h" 1
	fence ow,ow
# 0 "" 2
	.loc 2 97 2
#NO_APP
	li	a3,51392512
.LBE1357:
.LBE1356:
	.loc 1 833 10 is_stmt 0
	ori	a5,a5,16
.LVL207:
.LBB1359:
.LBB1358:
	.loc 2 97 2
	sw	a5,120(a3)
.LVL208:
.LBE1358:
.LBE1359:
	.loc 1 835 61 is_stmt 1
	.loc 1 837 2
	.loc 1 838 58
	.loc 1 839 2
.LBB1360:
.LBB1361:
	.loc 2 96 2
#APP
# 96 "/tina-d1/lichee/brandy-2.0/spl/include/arch/riscv/asm/io.h" 1
	fence ow,ow
# 0 "" 2
	.loc 2 97 2
#NO_APP
.LBE1361:
.LBE1360:
	.loc 1 837 38 is_stmt 0
	slliw	a4,a4,16
.LVL209:
	.loc 1 837 58
	or	a4,a7,a4
	.loc 1 837 10
	li	a7,33554432
.LVL210:
	addi	a7,a7,256
	or	a4,a4,a7
.LBB1363:
.LBB1362:
	.loc 2 97 2
	sw	a4,128(a3)
.LVL211:
.LBE1362:
.LBE1363:
	.loc 1 841 2 is_stmt 1
.LBB1364:
.LBB1365:
	.loc 2 96 2
#APP
# 96 "/tina-d1/lichee/brandy-2.0/spl/include/arch/riscv/asm/io.h" 1
	fence ow,ow
# 0 "" 2
	.loc 2 97 2
#NO_APP
.LBE1365:
.LBE1364:
	.loc 1 841 2 is_stmt 0
	ld	a5,24(sp)
	ld	a4,16(sp)
	slliw	a5,a5,20
	or	a5,a4,a5
.LBB1367:
.LBB1366:
	.loc 2 97 2
	sw	a5,80(a3)
.LVL212:
.LBE1366:
.LBE1367:
	.loc 1 842 2 is_stmt 1
.LBB1368:
.LBB1369:
	.loc 2 96 2
#APP
# 96 "/tina-d1/lichee/brandy-2.0/spl/include/arch/riscv/asm/io.h" 1
	fence ow,ow
# 0 "" 2
	.loc 2 97 2
#NO_APP
.LBE1369:
.LBE1368:
	.loc 1 842 2 is_stmt 0
	ld	a5,40(sp)
	ld	a4,32(sp)
	slliw	a5,a5,20
	or	a5,a4,a5
.LBB1371:
.LBB1370:
	.loc 2 97 2
	sw	a5,84(a3)
.LVL213:
.LBE1370:
.LBE1371:
	.loc 1 844 2 is_stmt 1
	.loc 1 845 60
	.loc 1 846 2
.LBB1372:
.LBB1373:
	.loc 2 96 2
#APP
# 96 "/tina-d1/lichee/brandy-2.0/spl/include/arch/riscv/asm/io.h" 1
	fence ow,ow
# 0 "" 2
	.loc 2 97 2
#NO_APP
.LBE1373:
.LBE1372:
	.loc 1 844 10 is_stmt 0
	ld	a4,8(sp)
	.loc 1 844 19
	slliw	a5,s2,16
	.loc 1 844 10
	or	a5,a4,a5
.LBB1375:
.LBB1374:
	.loc 2 97 2
	sw	a5,144(a3)
.LVL214:
.LBE1374:
.LBE1375:
	.loc 1 847 2 is_stmt 1
	.loc 1 848 2
.LBB1376:
.LBB1377:
	.loc 2 96 2
#APP
# 96 "/tina-d1/lichee/brandy-2.0/spl/include/arch/riscv/asm/io.h" 1
	fence ow,ow
# 0 "" 2
	.loc 2 97 2
#NO_APP
.LBE1377:
.LBE1376:
	.loc 1 847 10 is_stmt 0
	li	a5,268369920
	.loc 1 849 1
	ld	ra,200(sp)
	.cfi_remember_state
	.cfi_restore 1
	ld	s0,192(sp)
	.cfi_restore 8
.LVL215:
	.loc 1 847 20
	slliw	s2,s2,15
.LVL216:
	.loc 1 847 10
	and	s2,s2,a5
.LBB1379:
.LBB1378:
	.loc 2 97 2
	sw	s2,148(a3)
.LVL217:
.LBE1378:
.LBE1379:
	.loc 1 849 1
	ld	s1,184(sp)
	.cfi_restore 9
	ld	s2,176(sp)
	.cfi_restore 18
	ld	s3,168(sp)
	.cfi_restore 19
	ld	s4,160(sp)
	.cfi_restore 20
	ld	s5,152(sp)
	.cfi_restore 21
.LVL218:
	ld	s6,144(sp)
	.cfi_restore 22
.LVL219:
	ld	s7,136(sp)
	.cfi_restore 23
	ld	s8,128(sp)
	.cfi_restore 24
	ld	s9,120(sp)
	.cfi_restore 25
.LVL220:
	ld	s10,112(sp)
	.cfi_restore 26
	ld	s11,104(sp)
	.cfi_restore 27
.LVL221:
	addi	sp,sp,208
	.cfi_def_cfa_offset 0
.LVL222:
	jr	ra
.LVL223:
.L35:
	.cfi_restore_state
	.loc 1 481 5
	li	a5,3
	.loc 1 455 12
	extu	s0,s4,1+31-1,1
	.loc 1 480 51 is_stmt 1
	.loc 1 481 3
	.loc 1 481 5 is_stmt 0
	bne	s8,a5,.L37
	.loc 1 483 4 is_stmt 1
	mv	a1,s0
	li	a0,350
.LVL224:
	call	auto_cal_timing
.LVL225:
	sext.w	a5,a0
	li	a0,8192
	mv	a1,s0
	addi	a0,a0,-392
	sd	a5,8(sp)
	call	auto_cal_timing
.LVL226:
	sext.w	a0,a0
	andi	s2,a0,31
	snez	s2,s2
	srliw	a0,a0,5
	mv	a1,s0
	addw	s2,s2,a0
	li	a0,8
	call	auto_cal_timing
.LVL227:
	sext.w	s6,a0
	mv	a1,s0
	li	a0,15
	call	auto_cal_timing
.LVL228:
	li	a5,2
	sext.w	s3,a0
	mv	s1,s6
	bgeu	s6,a5,.L38
	li	s1,2
.L38:
	li	a5,2
	mv	s6,s3
	bgeu	s3,a5,.L39
	li	s6,2
.L39:
	.loc 1 483 6 is_stmt 0
	li	a5,800
	.loc 1 487 12
	mv	a1,s0
	.loc 1 483 6
	bgtu	s4,a5,.L40
	.loc 1 486 5 is_stmt 1
	.loc 1 487 5
	.loc 1 487 12 is_stmt 0
	li	a0,50
	call	auto_cal_timing
.LVL229:
	sext.w	s10,a0
.LVL230:
	.loc 1 488 5 is_stmt 1
	.loc 1 488 12 is_stmt 0
	mv	a1,s0
	li	a0,10
	call	auto_cal_timing
.LVL231:
	sext.w	a0,a0
.LVL232:
	.loc 1 489 5 is_stmt 1
	li	a5,2
	mv	s7,a0
	bgeu	a0,a5,.L41
	li	s7,2
.L41:
.LVL233:
	.loc 1 490 5
	.loc 1 491 5
	.loc 1 491 11 is_stmt 0
	mv	a1,s0
	li	a0,53
	call	auto_cal_timing
.LVL234:
	sext.w	s9,a0
.LVL235:
	.loc 1 493 5 is_stmt 1
	.loc 1 494 5
	.loc 1 495 5
	.loc 1 496 5
	.loc 1 497 5
	.loc 1 498 5
	.loc 1 499 5
	.loc 1 500 5
	.loc 1 501 5
	.loc 1 502 5
	.loc 1 502 12 is_stmt 0
	mv	a1,s0
	li	a0,38
	call	auto_cal_timing
.LVL236:
	sext.w	s11,a0
.LVL237:
	.loc 1 504 5 is_stmt 1
	.loc 1 505 5
	.loc 1 506 5
	mv	a6,s1
.L82:
	.loc 1 526 11 is_stmt 0
	sd	s3,0(sp)
.LVL238:
.L42:
	.loc 1 608 70 is_stmt 1
	.loc 1 609 3
	.loc 1 609 69 is_stmt 0
	slliw	a4,s10,15
	.loc 1 609 40
	slliw	a5,s3,6
	.loc 1 609 61
	or	a5,a5,a4
	or	a5,a5,s9
	.loc 1 609 54
	slliw	a4,s7,11
	.loc 1 609 61
	or	a5,a5,a4
	.loc 1 609 76
	li	a4,4194304
	or	a5,a5,a4
	.loc 1 609 19
	sw	a5,40(s5)
	.loc 1 610 61 is_stmt 1
	.loc 1 611 3
	.loc 1 611 40 is_stmt 0
	ld	a5,0(sp)
	.loc 1 611 53
	slliw	a4,s6,11
	.loc 1 613 19
	sd	s1,64(sp)
	.loc 1 611 40
	slliw	a5,a5,6
	.loc 1 611 46
	or	a5,a5,a4
	or	a5,a5,s11
	.loc 1 611 68
	slliw	a4,s1,15
	.loc 1 611 60
	or	a5,a5,a4
	.loc 1 611 83
	slliw	a4,s1,20
	.loc 1 611 75
	or	a5,a5,a4
	.loc 1 611 97
	slliw	a4,a6,23
	.loc 1 611 90
	or	a5,a5,a4
	.loc 1 611 19
	sw	a5,44(s5)
	.loc 1 612 61 is_stmt 1
	.loc 1 613 3
	.loc 1 613 42 is_stmt 0
	ld	a5,8(sp)
	slliw	a5,a5,12
	.loc 1 613 34
	or	a5,s2,a5
	.loc 1 613 19
	sw	a5,48(s5)
	li	a5,2
	sd	a5,88(sp)
	j	.L36
.LVL239:
.L40:
	.loc 1 511 5 is_stmt 1
	.loc 1 512 5
	.loc 1 512 12 is_stmt 0
	li	a0,35
	call	auto_cal_timing
.LVL240:
	sext.w	s10,a0
.LVL241:
	.loc 1 513 5 is_stmt 1
	.loc 1 513 12 is_stmt 0
	mv	a1,s0
	li	a0,6
	call	auto_cal_timing
.LVL242:
	sext.w	a0,a0
.LVL243:
	.loc 1 514 5 is_stmt 1
	li	a5,2
	mv	s7,a0
	bgeu	a0,a5,.L43
	li	s7,2
.L43:
.LVL244:
	.loc 1 515 5
	.loc 1 515 12 is_stmt 0
	mv	a1,s0
	li	a0,14
	call	auto_cal_timing
.LVL245:
	.loc 1 516 11
	mv	a1,s0
	.loc 1 515 12
	sext.w	s3,a0
.LVL246:
	.loc 1 516 5 is_stmt 1
	.loc 1 516 11 is_stmt 0
	li	a0,48
	call	auto_cal_timing
.LVL247:
	sext.w	s9,a0
.LVL248:
	.loc 1 518 5 is_stmt 1
	.loc 1 519 5
	.loc 1 520 5
	.loc 1 521 5
	.loc 1 522 5
	.loc 1 523 5
	.loc 1 524 5
	.loc 1 525 5
	.loc 1 526 5
	.loc 1 527 5
	.loc 1 527 12 is_stmt 0
	mv	a1,s0
	li	a0,34
	call	auto_cal_timing
.LVL249:
	sext.w	s11,a0
.LVL250:
	.loc 1 529 5 is_stmt 1
	.loc 1 530 5
	.loc 1 531 5
	.loc 1 527 12 is_stmt 0
	mv	a6,s7
	j	.L82
.LVL251:
.L37:
	.loc 1 534 8 is_stmt 1
	.loc 1 534 10 is_stmt 0
	li	a5,2
	bne	s8,a5,.L44
	.loc 1 536 4 is_stmt 1
	.loc 1 537 4
	.loc 1 537 11 is_stmt 0
	mv	a1,s0
	li	a0,50
.LVL252:
	call	auto_cal_timing
.LVL253:
	.loc 1 538 11
	mv	a1,s0
	.loc 1 537 11
	sext.w	s10,a0
.LVL254:
	.loc 1 538 4 is_stmt 1
	.loc 1 538 11 is_stmt 0
	li	a0,10
	call	auto_cal_timing
.LVL255:
	.loc 1 539 11
	mv	a1,s0
	.loc 1 538 11
	sext.w	s7,a0
.LVL256:
	.loc 1 539 4 is_stmt 1
	.loc 1 539 11 is_stmt 0
	li	a0,20
	call	auto_cal_timing
.LVL257:
	.loc 1 540 10
	mv	a1,s0
	.loc 1 539 11
	sext.w	s3,a0
.LVL258:
	.loc 1 540 4 is_stmt 1
	.loc 1 540 10 is_stmt 0
	li	a0,65
	call	auto_cal_timing
.LVL259:
	.loc 1 543 11
	mv	a1,s0
	.loc 1 540 10
	sext.w	s9,a0
.LVL260:
	.loc 1 542 4 is_stmt 1
	.loc 1 543 4
	.loc 1 543 11 is_stmt 0
	li	a0,8
	call	auto_cal_timing
.LVL261:
	.loc 1 545 10
	mv	a1,s0
	.loc 1 543 11
	sext.w	s1,a0
.LVL262:
	.loc 1 544 4 is_stmt 1
	.loc 1 545 4
	.loc 1 545 10 is_stmt 0
	li	a0,15
	call	auto_cal_timing
.LVL263:
	sext.w	a5,a0
	.loc 1 547 11
	mv	a1,s0
	li	a0,45
	.loc 1 545 10
	sd	a5,0(sp)
.LVL264:
	.loc 1 546 4 is_stmt 1
	.loc 1 547 4
	.loc 1 547 11 is_stmt 0
	call	auto_cal_timing
.LVL265:
	sext.w	s11,a0
.LVL266:
	.loc 1 549 4 is_stmt 1
	.loc 1 549 12 is_stmt 0
	li	a0,8192
	mv	a1,s0
	addi	a0,a0,-392
	call	auto_cal_timing
.LVL267:
	sext.w	a0,a0
.LVL268:
	.loc 1 550 4 is_stmt 1
	.loc 1 550 19 is_stmt 0
	srliw	s2,a0,5
	.loc 1 550 54
	andi	a0,a0,31
.LVL269:
	snez	a0,a0
	.loc 1 550 10
	addw	s2,s2,a0
	.loc 1 551 4 is_stmt 1
	.loc 1 551 11 is_stmt 0
	mv	a1,s0
	li	a0,328
	call	auto_cal_timing
.LVL270:
	sext.w	a5,a0
	sd	a5,8(sp)
.LVL271:
	.loc 1 542 8
	li	a6,2
	.loc 1 545 10
	ld	s6,0(sp)
	j	.L42
.LVL272:
.L44:
	.loc 1 553 8 is_stmt 1
	.loc 1 553 10 is_stmt 0
	li	a5,6
	bne	s8,a5,.L45
	.loc 1 555 4 is_stmt 1
	.loc 1 556 4
	.loc 1 556 11 is_stmt 0
	mv	a1,s0
	li	a0,50
.LVL273:
	call	auto_cal_timing
.LVL274:
	sext.w	a0,a0
.LVL275:
	.loc 1 557 4 is_stmt 1
	li	a5,4
	mv	s10,a0
	bgeu	a0,a5,.L46
	li	s10,4
.L46:
.LVL276:
	.loc 1 558 4
	.loc 1 558 11 is_stmt 0
	mv	a1,s0
	li	a0,10
	call	auto_cal_timing
.LVL277:
	sext.w	s7,a0
.LVL278:
	.loc 1 559 4 is_stmt 1
	.loc 1 559 6 is_stmt 0
	bnez	s7,.L47
	.loc 1 559 22
	li	s7,1
.LVL279:
.L47:
	.loc 1 560 4 is_stmt 1
	.loc 1 560 11 is_stmt 0
	mv	a1,s0
	li	a0,24
	call	auto_cal_timing
.LVL280:
	sext.w	a0,a0
.LVL281:
	.loc 1 561 4 is_stmt 1
	li	a5,2
	mv	s3,a0
	bgeu	a0,a5,.L48
	li	s3,2
.L48:
.LVL282:
	.loc 1 562 4
	.loc 1 562 10 is_stmt 0
	mv	a1,s0
	li	a0,70
	call	auto_cal_timing
.LVL283:
	sext.w	s9,a0
.LVL284:
	.loc 1 564 4 is_stmt 1
	.loc 1 564 10 is_stmt 0
	mv	a1,s0
	li	a0,8
	call	auto_cal_timing
.LVL285:
	sext.w	a6,a0
.LVL286:
	.loc 1 565 4 is_stmt 1
	.loc 1 565 6 is_stmt 0
	beqz	a6,.L73
	.loc 1 566 4 is_stmt 1
.LVL287:
	.loc 1 567 4
	li	a5,2
	mv	s1,a6
	bgeu	a6,a5,.L49
.LVL288:
.L81:
	.loc 1 567 22 is_stmt 0
	li	s1,2
.L49:
	.loc 1 570 10
	mv	a1,s0
	li	a0,15
.LVL289:
	sd	a6,0(sp)
.LVL290:
	.loc 1 568 4 is_stmt 1
	.loc 1 569 4
	.loc 1 570 4
	.loc 1 570 10 is_stmt 0
	call	auto_cal_timing
.LVL291:
	sext.w	a0,a0
.LVL292:
	.loc 1 571 4 is_stmt 1
	li	a5,2
	mv	s6,a0
	ld	a6,0(sp)
	bgeu	a0,a5,.L51
	li	s6,2
.L51:
	.loc 1 573 10 is_stmt 0
	mv	a1,s0
	li	a0,17
.LVL293:
	sd	a6,16(sp)
	.loc 1 573 4 is_stmt 1
	.loc 1 573 10 is_stmt 0
	call	auto_cal_timing
.LVL294:
	sext.w	a5,a0
	.loc 1 574 11
	mv	a1,s0
	li	a0,42
	.loc 1 573 10
	sd	a5,0(sp)
.LVL295:
	.loc 1 574 4 is_stmt 1
	.loc 1 574 11 is_stmt 0
	call	auto_cal_timing
.LVL296:
	sext.w	s11,a0
.LVL297:
	.loc 1 576 4 is_stmt 1
	.loc 1 576 12 is_stmt 0
	li	a0,4096
	mv	a1,s0
	addi	a0,a0,-196
	call	auto_cal_timing
.LVL298:
	sext.w	a0,a0
.LVL299:
	.loc 1 577 4 is_stmt 1
	.loc 1 577 19 is_stmt 0
	srliw	s2,a0,5
	.loc 1 577 54
	andi	a0,a0,31
.LVL300:
	snez	a0,a0
	.loc 1 577 10
	addw	s2,s2,a0
	.loc 1 578 4 is_stmt 1
	.loc 1 578 11 is_stmt 0
	mv	a1,s0
	li	a0,210
	call	auto_cal_timing
.LVL301:
	sext.w	a5,a0
	sd	a5,8(sp)
.LVL302:
	ld	a6,16(sp)
	j	.L42
.LVL303:
.L73:
	.loc 1 565 20
	li	a6,1
.LVL304:
	j	.L81
.LVL305:
.L45:
	.loc 1 580 8 is_stmt 1
	.loc 1 580 10 is_stmt 0
	li	a5,7
	bne	s8,a5,.L74
	.loc 1 582 4 is_stmt 1
	.loc 1 583 4
	.loc 1 583 11 is_stmt 0
	mv	a1,s0
	li	a0,50
.LVL306:
	call	auto_cal_timing
.LVL307:
	sext.w	a0,a0
.LVL308:
	.loc 1 584 4 is_stmt 1
	li	a5,4
	mv	s10,a0
	bgeu	a0,a5,.L52
	li	s10,4
.L52:
.LVL309:
	.loc 1 585 4
	.loc 1 585 11 is_stmt 0
	mv	a1,s0
	li	a0,10
	call	auto_cal_timing
.LVL310:
	sext.w	s7,a0
.LVL311:
	.loc 1 586 4 is_stmt 1
	.loc 1 586 6 is_stmt 0
	bnez	s7,.L53
	.loc 1 586 22
	li	s7,1
.LVL312:
.L53:
	.loc 1 587 4 is_stmt 1
	.loc 1 587 11 is_stmt 0
	mv	a1,s0
	li	a0,24
	call	auto_cal_timing
.LVL313:
	sext.w	a0,a0
.LVL314:
	.loc 1 588 4 is_stmt 1
	li	a5,2
	mv	s3,a0
	bgeu	a0,a5,.L54
	li	s3,2
.L54:
.LVL315:
	.loc 1 589 4
	.loc 1 589 10 is_stmt 0
	mv	a1,s0
	li	a0,70
	call	auto_cal_timing
.LVL316:
	sext.w	s9,a0
.LVL317:
	.loc 1 591 4 is_stmt 1
	.loc 1 591 10 is_stmt 0
	mv	a1,s0
	li	a0,8
	call	auto_cal_timing
.LVL318:
	sext.w	a0,a0
.LVL319:
	.loc 1 592 4 is_stmt 1
	li	a5,2
	mv	s1,a0
	bgeu	a0,a5,.L55
	li	s1,2
.L55:
.LVL320:
	.loc 1 593 4
	.loc 1 594 4
	.loc 1 595 4
	.loc 1 596 4
	.loc 1 597 4
	.loc 1 597 10 is_stmt 0
	mv	a1,s0
	li	a0,15
	call	auto_cal_timing
.LVL321:
	sext.w	a0,a0
.LVL322:
	.loc 1 598 4 is_stmt 1
	li	a5,2
	mv	s6,a0
	bgeu	a0,a5,.L56
	li	s6,2
.L56:
.LVL323:
	.loc 1 600 4
	.loc 1 600 10 is_stmt 0
	mv	a1,s0
	li	a0,17
	call	auto_cal_timing
.LVL324:
	sext.w	a5,a0
	.loc 1 601 11
	mv	a1,s0
	li	a0,42
	.loc 1 600 10
	sd	a5,0(sp)
.LVL325:
	.loc 1 601 4 is_stmt 1
	.loc 1 601 11 is_stmt 0
	call	auto_cal_timing
.LVL326:
	sext.w	s11,a0
.LVL327:
	.loc 1 603 4 is_stmt 1
	.loc 1 603 12 is_stmt 0
	li	a0,4096
	mv	a1,s0
	addi	a0,a0,-196
	call	auto_cal_timing
.LVL328:
	sext.w	a0,a0
.LVL329:
	.loc 1 604 4 is_stmt 1
	.loc 1 604 19 is_stmt 0
	srliw	s2,a0,5
	.loc 1 604 54
	andi	a0,a0,31
.LVL330:
	snez	a0,a0
	.loc 1 604 10
	addw	s2,s2,a0
	.loc 1 605 4 is_stmt 1
	.loc 1 605 11 is_stmt 0
	mv	a1,s0
	li	a0,210
	call	auto_cal_timing
.LVL331:
	sext.w	a5,a0
	sd	a5,8(sp)
.LVL332:
	mv	a6,s1
	j	.L42
.LVL333:
.L74:
	.loc 1 443 15
	li	a5,128
	sd	a5,8(sp)
	.loc 1 437 15
	li	a5,6
	.loc 1 442 15
	li	s2,98
	.loc 1 441 15
	li	a6,10
	.loc 1 439 15
	li	s6,8
	.loc 1 438 15
	li	s1,3
	.loc 1 437 15
	sd	a5,0(sp)
	.loc 1 436 15
	li	s11,14
	.loc 1 435 15
	li	s10,16
	.loc 1 434 15
	li	s9,20
	.loc 1 433 15
	li	s3,6
	.loc 1 432 15
	li	s7,3
	j	.L42
.LVL334:
.L58:
	li	a5,6
	beq	s8,a5,.L61
	li	a5,7
	bne	s8,a5,.L84
	.loc 1 733 4 is_stmt 1
.LVL335:
	.loc 1 734 4
	.loc 1 735 4
	.loc 1 736 4
	.loc 1 737 4
	.loc 1 738 4
	.loc 1 739 4
	.loc 1 740 4
	.loc 1 740 12 is_stmt 0
	li	a5,60
	divuw	t3,s4,a5
.LVL336:
	.loc 1 742 4 is_stmt 1
	.loc 1 742 6 is_stmt 0
	li	a5,800
	bleu	s4,a5,.L79
	.loc 1 753 10
	li	a5,4
	.loc 1 755 16
	li	a7,3
	.loc 1 754 16
	li	a4,6
	.loc 1 758 9
	li	t2,12
.LVL337:
.L65:
	.loc 1 762 4 is_stmt 1
	.loc 1 762 19 is_stmt 0
	li	a3,200
	.loc 1 763 37
	li	a1,1000
	.loc 1 768 11
	addiw	s1,s1,5
.LVL338:
	.loc 1 766 9
	addiw	s6,s6,5
.LVL339:
	.loc 1 769 4
	mv	a0,s8
	.loc 1 766 9
	addw	s6,s6,a5
.LVL340:
	.loc 1 769 4
	ld	s0,72(sp)
	.loc 1 737 11
	li	t1,5
	.loc 1 739 11
	li	t4,5
	.loc 1 767 11
	li	t6,13
	.loc 1 736 9
	li	s8,3
.LVL341:
	.loc 1 735 9
	li	t0,12
	.loc 1 734 9
	li	t5,5
	.loc 1 762 19
	mulw	a3,a3,s4
	.loc 1 762 12
	addiw	a3,a3,1
	sd	a3,16(sp)
.LVL342:
	.loc 1 763 4 is_stmt 1
	.loc 1 763 19 is_stmt 0
	li	a3,100
	mulw	a3,a3,s4
	.loc 1 763 37
	divuw	a3,a3,a1
	.loc 1 733 9
	li	a1,5
	.loc 1 763 12
	addiw	a3,a3,1
	sd	a3,24(sp)
.LVL343:
	.loc 1 764 4 is_stmt 1
	.loc 1 764 18 is_stmt 0
	li	a3,11
	mulw	a3,a3,s4
	.loc 1 764 12
	addiw	a3,a3,1
	sd	a3,32(sp)
.LVL344:
	.loc 1 765 4 is_stmt 1
	.loc 1 765 12 is_stmt 0
	addiw	a3,s4,1
	sd	a3,40(sp)
.LVL345:
	.loc 1 766 4 is_stmt 1
	.loc 1 767 4
	.loc 1 768 4
	.loc 1 768 11 is_stmt 0
	addw	a3,s1,a5
	sd	a3,48(sp)
.LVL346:
	.loc 1 769 4 is_stmt 1
	j	.L85
.LVL347:
.L59:
	.loc 1 621 4
	.loc 1 622 4
	.loc 1 623 4
	.loc 1 624 4
	.loc 1 625 4
	.loc 1 626 4
	.loc 1 627 4
	.loc 1 628 4
	.loc 1 628 12 is_stmt 0
	li	a5,30
	divuw	t3,s4,a5
.LVL348:
	.loc 1 630 4 is_stmt 1
	.loc 1 630 6 is_stmt 0
	li	a5,409
	bgtu	s4,a5,.L75
	.loc 1 647 9
	li	a3,4096
	.loc 1 643 9
	li	a0,3
	.loc 1 645 16
	li	a4,1
	.loc 1 647 9
	addi	a3,a3,-1437
.L63:
.LVL349:
	.loc 1 653 4 is_stmt 1
	.loc 1 653 19 is_stmt 0
	li	a5,400
	.loc 1 654 37
	li	a1,1000
	.loc 1 622 9
	mv	t5,s8
	.loc 1 657 9
	addiw	s6,s6,5
.LVL350:
	.loc 1 625 11
	li	t1,5
	.loc 1 627 11
	li	t4,4
	.loc 1 659 11
	li	t6,4
	.loc 1 624 9
	li	s8,3
.LVL351:
	.loc 1 623 9
	li	t0,12
	.loc 1 660 4
	li	a7,1
	li	s0,0
	li	t2,0
	.loc 1 653 19
	mulw	a5,a5,s4
	.loc 1 653 12
	addiw	a5,a5,1
	sd	a5,16(sp)
.LVL352:
	.loc 1 654 4 is_stmt 1
	.loc 1 654 19 is_stmt 0
	li	a5,500
	mulw	a5,a5,s4
	.loc 1 654 37
	divuw	a5,a5,a1
	.loc 1 621 9
	li	a1,0
	.loc 1 654 12
	addiw	a5,a5,1
	sd	a5,24(sp)
.LVL353:
	.loc 1 655 4 is_stmt 1
	.loc 1 655 19 is_stmt 0
	li	a5,200
	mulw	a5,a5,s4
	.loc 1 655 12
	addiw	a5,a5,1
	sd	a5,32(sp)
.LVL354:
	.loc 1 656 4 is_stmt 1
	.loc 1 656 12 is_stmt 0
	addiw	a5,s4,1
	sd	a5,40(sp)
.LVL355:
	.loc 1 657 4 is_stmt 1
	.loc 1 658 4
	.loc 1 658 11 is_stmt 0
	addiw	a5,s1,5
	sd	a5,48(sp)
.LVL356:
	.loc 1 659 4 is_stmt 1
	.loc 1 660 4
	ld	s1,56(sp)
.LVL357:
	li	a5,3
	j	.L60
.LVL358:
.L75:
	.loc 1 636 9 is_stmt 0
	li	a3,4096
	.loc 1 634 16
	li	a4,2
	.loc 1 632 9
	li	a0,4
	.loc 1 636 9
	addi	a3,a3,-397
	j	.L63
.LVL359:
.L57:
	.loc 1 663 4 is_stmt 1
	.loc 1 664 4
	.loc 1 665 4
	.loc 1 666 4
	.loc 1 667 4
	.loc 1 668 4
	.loc 1 669 4
	.loc 1 670 4
	.loc 1 670 12 is_stmt 0
	li	a5,30
	divuw	t3,s4,a5
.LVL360:
	.loc 1 672 4 is_stmt 1
	.loc 1 672 6 is_stmt 0
	li	a5,800
	bleu	s4,a5,.L76
	.loc 1 689 9
	li	a3,8192
	.loc 1 688 16
	li	a7,3
	.loc 1 685 9
	li	a0,7
	.loc 1 687 16
	li	a4,5
	.loc 1 691 9
	li	t2,32
	.loc 1 689 9
	addi	a3,a3,-492
.L64:
.LVL361:
	.loc 1 695 4 is_stmt 1
	.loc 1 695 19 is_stmt 0
	li	a5,500
	.loc 1 696 37
	li	a1,1000
	.loc 1 700 11
	addiw	s1,s1,2
.LVL362:
	.loc 1 699 9
	addiw	s6,s6,2
.LVL363:
	addw	s6,s6,a4
.LVL364:
	.loc 1 695 19
	mulw	a5,a5,s4
	.loc 1 695 12
	addiw	a5,a5,1
	sd	a5,16(sp)
.LVL365:
	.loc 1 696 4 is_stmt 1
	.loc 1 696 19 is_stmt 0
	li	a5,360
	mulw	a5,a5,s4
	.loc 1 696 37
	divuw	a5,a5,a1
	.loc 1 696 12
	addiw	a5,a5,1
	sd	a5,24(sp)
.LVL366:
	.loc 1 697 4 is_stmt 1
	.loc 1 697 19 is_stmt 0
	li	a5,200
	mulw	a5,a5,s4
	.loc 1 697 12
	addiw	a5,a5,1
	sd	a5,32(sp)
.LVL367:
	.loc 1 698 4 is_stmt 1
	.loc 1 698 12 is_stmt 0
	addiw	a5,s4,1
	sd	a5,40(sp)
.LVL368:
	.loc 1 699 4 is_stmt 1
	.loc 1 700 4
	.loc 1 700 11 is_stmt 0
	addw	a5,s1,a4
	sd	a5,48(sp)
.LVL369:
	.loc 1 701 4 is_stmt 1
	.loc 1 702 4
	.loc 1 702 6 is_stmt 0
	ld	a5,80(sp)
	extu	a1,a5,2+2-1,2
.LVL370:
	li	a5,1
	beq	a1,a5,.L77
	.loc 1 702 28 discriminator 1
	li	a5,912
	bgtu	s4,a5,.L78
.L77:
	ld	s1,56(sp)
.LVL371:
	mv	a5,a4
	.loc 1 667 11
	li	t1,5
	.loc 1 669 11
	li	t4,4
	.loc 1 701 11
	li	t6,5
.L83:
	.loc 1 665 9
	li	t0,12
	.loc 1 664 9
	li	t5,4
	.loc 1 663 9
	li	a1,0
	li	s0,0
	j	.L60
.LVL372:
.L76:
	.loc 1 678 9
	li	a3,8192
	.loc 1 674 9
	li	a0,6
	.loc 1 677 16
	li	a7,2
	.loc 1 676 16
	li	a4,4
	.loc 1 680 9
	li	t2,24
	.loc 1 678 9
	addi	a3,a3,-912
	j	.L64
.LVL373:
.L61:
	.loc 1 706 4 is_stmt 1
	.loc 1 707 4
	.loc 1 708 4
	.loc 1 709 4
	.loc 1 710 4
	.loc 1 711 4
	.loc 1 712 4
	.loc 1 713 4
	.loc 1 713 12 is_stmt 0
	li	a5,60
	divuw	t3,s4,a5
.LVL374:
	.loc 1 715 4 is_stmt 1
	.loc 1 716 4
	.loc 1 717 4
	.loc 1 718 4
	.loc 1 719 4
	.loc 1 720 4
	.loc 1 721 4
	.loc 1 722 4
	.loc 1 724 4
	.loc 1 724 19 is_stmt 0
	li	a5,200
	.loc 1 725 37
	li	a4,1000
	.loc 1 722 8
	ld	s0,72(sp)
	.loc 1 728 9
	addiw	s6,s6,5
.LVL375:
	.loc 1 721 8
	li	t2,6
	.loc 1 710 11
	li	t1,5
	.loc 1 712 11
	li	t4,5
	.loc 1 729 11
	li	t6,10
	.loc 1 709 9
	li	s8,2
.LVL376:
	.loc 1 708 9
	li	t0,5
	.loc 1 707 9
	li	t5,5
	.loc 1 706 9
	li	a1,3
	.loc 1 715 8
	li	a0,4
	.loc 1 718 15
	li	a7,1
	.loc 1 724 19
	mulw	a5,a5,s4
	.loc 1 724 12
	addiw	a5,a5,1
	sd	a5,16(sp)
.LVL377:
	.loc 1 725 4 is_stmt 1
	.loc 1 725 19 is_stmt 0
	li	a5,100
	mulw	a5,a5,s4
	.loc 1 725 37
	divuw	a5,a5,a4
	.loc 1 717 15
	li	a4,3
	.loc 1 725 12
	addiw	a5,a5,1
	sd	a5,24(sp)
.LVL378:
	.loc 1 726 4 is_stmt 1
	.loc 1 726 18 is_stmt 0
	li	a5,11
	mulw	a5,a5,s4
	.loc 1 726 12
	addiw	a5,a5,1
	sd	a5,32(sp)
.LVL379:
	.loc 1 727 4 is_stmt 1
	.loc 1 727 12 is_stmt 0
	addiw	a5,s4,1
	sd	a5,40(sp)
.LVL380:
	.loc 1 728 4 is_stmt 1
	.loc 1 729 4
	.loc 1 730 4
	.loc 1 730 11 is_stmt 0
	addiw	a5,s1,5
	sd	a5,48(sp)
.LVL381:
	.loc 1 731 4 is_stmt 1
	.loc 1 716 9 is_stmt 0
	li	a5,2
.LVL382:
.L85:
	.loc 1 769 4
	li	s1,195
	li	a3,0
	j	.L60
.LVL383:
.L79:
	.loc 1 744 10
	li	a5,3
	.loc 1 743 9
	li	s8,6
.LVL384:
	.loc 1 746 16
	li	a7,2
	.loc 1 745 16
	li	a4,5
	.loc 1 749 9
	li	t2,10
	j	.L65
.LVL385:
.L78:
	mv	a5,a4
	ld	s1,56(sp)
.LVL386:
	.loc 1 667 11
	li	t1,5
	.loc 1 669 11
	li	t4,4
	.loc 1 703 12
	li	t6,6
	j	.L83
.LVL387:
.L71:
	.loc 1 831 3 is_stmt 1
	.loc 1 831 11 is_stmt 0
	li	a3,-268406784
	j	.L86
	.cfi_endproc
.LFE50:
	.size	auto_set_timing_para, .-auto_set_timing_para
	.section	.text.ccm_get_sscg,"ax",@progbits
	.align	1
	.globl	ccm_get_sscg
	.type	ccm_get_sscg, @function
ccm_get_sscg:
.LFB51:
	.loc 1 857 1 is_stmt 1
	.cfi_startproc
.LVL388:
	.loc 1 858 2
	.loc 1 859 2
	.loc 1 860 2
	.loc 1 862 2
	.loc 1 862 17 is_stmt 0
	li	a5,24
	divuw	a4,a1,a5
.LVL389:
	.loc 1 863 3 is_stmt 1
	.loc 1 863 5 is_stmt 0
	mulw	a5,a5,a4
	beq	a5,a1,.L94
	.loc 1 865 4 is_stmt 1
	.loc 1 857 1 is_stmt 0
	addi	sp,sp,-32
	.cfi_def_cfa_offset 32
	sd	s1,16(sp)
	.cfi_offset 9, -16
	.loc 1 865 12
	extu	s1,a2,31,0
.LVL390:
.LBB1380:
.LBB1381:
	.loc 2 138 2 is_stmt 1
	.loc 2 140 2
.LBE1381:
.LBE1380:
	.loc 1 857 1 is_stmt 0
	sd	ra,24(sp)
	sd	s0,8(sp)
	.cfi_offset 1, -8
	.cfi_offset 8, -24
.LBB1383:
.LBB1382:
	.loc 2 140 6
	lw	a5,0(s1)
.LVL391:
	.loc 2 141 2 is_stmt 1
#APP
# 141 "/tina-d1/lichee/brandy-2.0/spl/include/arch/riscv/asm/io.h" 1
	fence ir,ir
# 0 "" 2
	.loc 2 142 2
.LVL392:
#NO_APP
.LBE1382:
.LBE1383:
	.loc 1 866 4
	.loc 1 866 6 is_stmt 0
	extu	a5,a5,1+1-1,1
.LVL393:
	extu	s0,a3,31,0
	beqz	a5,.L89
	.loc 1 867 5 is_stmt 1
.LVL394:
.LBB1384:
.LBB1385:
	.loc 2 138 2
	.loc 2 140 2
	.loc 2 140 6 is_stmt 0
	lw	a5,0(s0)
.LVL395:
	.loc 2 141 2 is_stmt 1
#APP
# 141 "/tina-d1/lichee/brandy-2.0/spl/include/arch/riscv/asm/io.h" 1
	fence ir,ir
# 0 "" 2
	.loc 2 142 2
.LVL396:
#NO_APP
.LBE1385:
.LBE1384:
.LBB1386:
.LBB1387:
	.loc 2 96 2
#APP
# 96 "/tina-d1/lichee/brandy-2.0/spl/include/arch/riscv/asm/io.h" 1
	fence ow,ow
# 0 "" 2
	.loc 2 97 2
#NO_APP
.LBE1387:
.LBE1386:
	.loc 1 867 5 is_stmt 0
	li	a3,524288
.LVL397:
	or	a5,a5,a3
.LVL398:
.LBB1389:
.LBB1388:
	.loc 2 97 2
	sw	a5,0(s0)
.LVL399:
.L89:
.LBE1388:
.LBE1389:
	.loc 1 869 3 is_stmt 1
	.loc 1 870 3
	.loc 1 871 3
	.loc 1 869 26 is_stmt 0
	lui	a5,%hi(.LC9)
	flw	fa4,%lo(.LC9)(a5)
	.loc 1 869 6
	fcvt.s.wu	fa5,a1
.LVL400:
	.loc 1 870 14
	lui	a5,%hi(.LC10)
	.loc 1 869 26
	fdiv.s	fa5,fa5,fa4
.LVL401:
	.loc 1 869 30
	fcvt.s.w	fa4,a4
	.loc 1 869 4
	fsub.s	fa5,fa5,fa4
.LVL402:
	.loc 1 870 14
	flw	fa4,%lo(.LC10)(a5)
	fmul.s	fa5,fa5,fa4
.LVL403:
	.loc 1 870 11
	fcvt.w.s a5,fa5,rtz
.LVL404:
.LBB1390:
.LBB1391:
	.loc 2 96 2 is_stmt 1
#APP
# 96 "/tina-d1/lichee/brandy-2.0/spl/include/arch/riscv/asm/io.h" 1
	fence ow,ow
# 0 "" 2
	.loc 2 97 2
#NO_APP
	sw	a5,0(s0)
.LVL405:
.LBE1391:
.LBE1390:
	.loc 1 873 3
.LBB1392:
.LBB1393:
	.loc 2 138 2
	.loc 2 140 2
	.loc 2 141 2
#APP
# 141 "/tina-d1/lichee/brandy-2.0/spl/include/arch/riscv/asm/io.h" 1
	fence ir,ir
# 0 "" 2
	.loc 2 142 2
.LVL406:
#NO_APP
.LBE1393:
.LBE1392:
	.loc 1 875 3
	.loc 1 875 8 is_stmt 0
	li	a4,655360
.LVL407:
	addiw	a4,a4,-1
	and	a5,a4,a5
.LVL408:
	.loc 1 876 3 is_stmt 1
	.loc 1 877 3
.LBB1394:
.LBB1395:
	.loc 2 96 2
#APP
# 96 "/tina-d1/lichee/brandy-2.0/spl/include/arch/riscv/asm/io.h" 1
	fence ow,ow
# 0 "" 2
	.loc 2 97 2
#NO_APP
.LBE1395:
.LBE1394:
	.loc 1 876 7 is_stmt 0
	li	a4,-536477696
	or	a5,a5,a4
.LVL409:
.LBB1397:
.LBB1396:
	.loc 2 97 2
	sw	a5,0(s0)
.LVL410:
.LBE1396:
.LBE1397:
	.loc 1 879 3 is_stmt 1
.LBB1398:
.LBB1399:
	.loc 1 59 3
	li	a0,20
.LVL411:
	call	sdelay
.LVL412:
.LBE1399:
.LBE1398:
	.loc 1 881 4
.LBB1400:
.LBB1401:
	.loc 2 138 2
	.loc 2 140 2
	.loc 2 140 6 is_stmt 0
	lw	a5,0(s1)
.LVL413:
	.loc 2 141 2 is_stmt 1
#APP
# 141 "/tina-d1/lichee/brandy-2.0/spl/include/arch/riscv/asm/io.h" 1
	fence ir,ir
# 0 "" 2
	.loc 2 142 2
.LVL414:
#NO_APP
.LBE1401:
.LBE1400:
	.loc 1 882 4
	.loc 1 883 4
.LBB1402:
.LBB1403:
	.loc 2 96 2
#APP
# 96 "/tina-d1/lichee/brandy-2.0/spl/include/arch/riscv/asm/io.h" 1
	fence ow,ow
# 0 "" 2
	.loc 2 97 2
#NO_APP
.LBE1403:
.LBE1402:
	.loc 1 882 9 is_stmt 0
	li	a4,16777216
	or	a5,a5,a4
.LVL415:
.LBB1405:
.LBB1404:
	.loc 2 97 2
	sw	a5,0(s1)
.LVL416:
.LBE1404:
.LBE1405:
	.loc 1 885 4 is_stmt 1
.LBB1406:
.LBB1407:
	.loc 2 138 2
	.loc 2 140 2
	.loc 2 140 6 is_stmt 0
	lw	a0,0(s0)
.LVL417:
	.loc 2 141 2 is_stmt 1
#APP
# 141 "/tina-d1/lichee/brandy-2.0/spl/include/arch/riscv/asm/io.h" 1
	fence ir,ir
# 0 "" 2
	.loc 2 142 2
.LVL418:
#NO_APP
.LBE1407:
.LBE1406:
	.loc 1 889 1 is_stmt 0
	ld	ra,24(sp)
	.cfi_restore 1
	ld	s0,8(sp)
	.cfi_restore 8
.LVL419:
	.loc 1 885 13
	extu	a0,a0,0+17-1,0
	.loc 1 889 1
	ld	s1,16(sp)
	.cfi_restore 9
.LVL420:
	.loc 1 885 13
	sext.w	a0,a0
.LVL421:
	.loc 1 888 3 is_stmt 1
	.loc 1 889 1 is_stmt 0
	addi	sp,sp,32
	.cfi_def_cfa_offset 0
	jr	ra
.LVL422:
.L94:
	li	a0,0
.LVL423:
	.loc 1 888 3 is_stmt 1
	.loc 1 889 1 is_stmt 0
	ret
	.cfi_endproc
.LFE51:
	.size	ccm_get_sscg, .-ccm_get_sscg
	.section	.text.ccm_set_pll_sscg,"ax",@progbits
	.align	1
	.globl	ccm_set_pll_sscg
	.type	ccm_set_pll_sscg, @function
ccm_set_pll_sscg:
.LFB52:
	.loc 1 900 1 is_stmt 1
	.cfi_startproc
.LVL424:
	.loc 1 901 2
	.loc 1 903 2
	.loc 1 900 1 is_stmt 0
	addi	sp,sp,-16
	.cfi_def_cfa_offset 16
	sd	s0,0(sp)
	.cfi_offset 8, -16
	.loc 1 903 13
	extu	s0,a1,31,0
.LVL425:
.LBB1408:
.LBB1409:
	.loc 2 138 2 is_stmt 1
	.loc 2 140 2
.LBE1409:
.LBE1408:
	.loc 1 900 1 is_stmt 0
	sd	ra,8(sp)
	.cfi_offset 1, -8
.LBB1411:
.LBB1410:
	.loc 2 140 6
	lw	a5,0(s0)
.LVL426:
	.loc 2 141 2 is_stmt 1
#APP
# 141 "/tina-d1/lichee/brandy-2.0/spl/include/arch/riscv/asm/io.h" 1
	fence ir,ir
# 0 "" 2
	.loc 2 142 2
.LVL427:
#NO_APP
.LBE1410:
.LBE1411:
	.loc 1 904 2
	.loc 1 904 4 is_stmt 0
	extu	a5,a5,1+1-1,1
.LVL428:
	extu	a2,a2,31,0
	beqz	a5,.L100
	.loc 1 905 3 is_stmt 1
.LVL429:
.LBB1412:
.LBB1413:
	.loc 2 138 2
	.loc 2 140 2
	.loc 2 140 6 is_stmt 0
	lw	a5,0(a2)
.LVL430:
	.loc 2 141 2 is_stmt 1
#APP
# 141 "/tina-d1/lichee/brandy-2.0/spl/include/arch/riscv/asm/io.h" 1
	fence ir,ir
# 0 "" 2
	.loc 2 142 2
.LVL431:
#NO_APP
.LBE1413:
.LBE1412:
.LBB1414:
.LBB1415:
	.loc 2 96 2
#APP
# 96 "/tina-d1/lichee/brandy-2.0/spl/include/arch/riscv/asm/io.h" 1
	fence ow,ow
# 0 "" 2
	.loc 2 97 2
#NO_APP
.LBE1415:
.LBE1414:
	.loc 1 905 3 is_stmt 0
	li	a4,524288
	or	a5,a5,a4
.LVL432:
.LBB1417:
.LBB1416:
	.loc 2 97 2
	sw	a5,0(a2)
.LVL433:
.L100:
.LBE1416:
.LBE1417:
	.loc 1 907 2 is_stmt 1
	.loc 1 910 2
	.loc 1 907 30 is_stmt 0
	lw	a5,92(a0)
	.loc 1 910 2
	li	a4,4
	.loc 1 907 10
	extu	a5,a5,20+3-1,20
	.loc 1 910 2
	addiw	a3,a5,-1
	bgtu	a3,a4,.L101
	lui	a4,%hi(.L103)
	addi	a4,a4,%lo(.L103)
	lurw	a5,a4,a3,2
	jr	a5
	.section	.rodata
	.align	2
	.align	2
.L103:
	.word	.L107
	.word	.L106
	.word	.L105
	.word	.L101
	.word	.L102
	.section	.text.ccm_set_pll_sscg
.L107:
	.loc 1 913 4 is_stmt 1
.LVL434:
.LBB1418:
.LBB1419:
	.loc 2 96 2
#APP
# 96 "/tina-d1/lichee/brandy-2.0/spl/include/arch/riscv/asm/io.h" 1
	fence ow,ow
# 0 "" 2
	.loc 2 97 2
#NO_APP
	li	a5,-460926976
	addiw	a5,a5,-820
.LVL435:
.L113:
.LBE1419:
.LBE1418:
.LBB1420:
.LBB1421:
	sw	a5,0(a2)
.LVL436:
.LBE1421:
.LBE1420:
	.loc 1 931 2
.LBB1423:
.LBB1424:
	.loc 1 59 3
	li	a0,20
.LVL437:
	call	sdelay
.LVL438:
.LBE1424:
.LBE1423:
	.loc 1 933 2
.LBB1425:
.LBB1426:
	.loc 2 138 2
	.loc 2 140 2
	.loc 2 140 6 is_stmt 0
	lw	a5,0(s0)
.LVL439:
	.loc 2 141 2 is_stmt 1
#APP
# 141 "/tina-d1/lichee/brandy-2.0/spl/include/arch/riscv/asm/io.h" 1
	fence ir,ir
# 0 "" 2
	.loc 2 142 2
.LVL440:
#NO_APP
.LBE1426:
.LBE1425:
	.loc 1 934 2
	.loc 1 935 2
.LBB1427:
.LBB1428:
	.loc 2 96 2
#APP
# 96 "/tina-d1/lichee/brandy-2.0/spl/include/arch/riscv/asm/io.h" 1
	fence ow,ow
# 0 "" 2
	.loc 2 97 2
#NO_APP
.LBE1428:
.LBE1427:
	.loc 1 934 10 is_stmt 0
	li	a4,16777216
	or	a5,a5,a4
.LVL441:
.LBB1430:
.LBB1429:
	.loc 2 97 2
	sw	a5,0(s0)
.LVL442:
.LBE1429:
.LBE1430:
	.loc 1 936 2 is_stmt 1
	.loc 1 937 1 is_stmt 0
	ld	ra,8(sp)
	.cfi_remember_state
	.cfi_restore 1
	ld	s0,0(sp)
	.cfi_restore 8
.LVL443:
	li	a0,0
	addi	sp,sp,16
	.cfi_def_cfa_offset 0
	jr	ra
.LVL444:
.L106:
	.cfi_restore_state
	.loc 1 916 4 is_stmt 1
.LBB1431:
.LBB1432:
	.loc 2 96 2
#APP
# 96 "/tina-d1/lichee/brandy-2.0/spl/include/arch/riscv/asm/io.h" 1
	fence ow,ow
# 0 "" 2
	.loc 2 97 2
#NO_APP
	li	a5,-385441792
	addiw	a5,a5,-1639
	j	.L113
.LVL445:
.L105:
.LBE1432:
.LBE1431:
	.loc 1 919 4
.LBB1433:
.LBB1434:
	.loc 2 96 2
#APP
# 96 "/tina-d1/lichee/brandy-2.0/spl/include/arch/riscv/asm/io.h" 1
	fence ow,ow
# 0 "" 2
	.loc 2 97 2
#NO_APP
	li	a5,-309960704
	addiw	a5,a5,1638
	j	.L113
.LVL446:
.L102:
.LBE1434:
.LBE1433:
	.loc 1 925 4
.LBB1435:
.LBB1436:
	.loc 2 96 2
#APP
# 96 "/tina-d1/lichee/brandy-2.0/spl/include/arch/riscv/asm/io.h" 1
	fence ow,ow
# 0 "" 2
	.loc 2 97 2
#NO_APP
	li	a5,-175767552
	j	.L113
.LVL447:
.L101:
.LBE1436:
.LBE1435:
	.loc 1 928 4
.LBB1437:
.LBB1422:
	.loc 2 96 2
#APP
# 96 "/tina-d1/lichee/brandy-2.0/spl/include/arch/riscv/asm/io.h" 1
	fence ow,ow
# 0 "" 2
	.loc 2 97 2
#NO_APP
	li	a5,-234475520
	addiw	a5,a5,819
	j	.L113
.LBE1422:
.LBE1437:
	.cfi_endproc
.LFE52:
	.size	ccm_set_pll_sscg, .-ccm_set_pll_sscg
	.section	.text.ccm_set_pll_ddr_clk,"ax",@progbits
	.align	1
	.globl	ccm_set_pll_ddr_clk
	.type	ccm_set_pll_ddr_clk, @function
ccm_set_pll_ddr_clk:
.LFB53:
	.loc 1 1048 1
	.cfi_startproc
.LVL448:
	.loc 1 1049 2
	.loc 1 1050 2
	.loc 1 1051 2
	.loc 1 1052 3
	.loc 1 1054 2
	.loc 1 1057 2
	.loc 1 1058 2
	.loc 1 1060 2
	.loc 1 1060 24 is_stmt 0
	lw	a5,92(a1)
	.loc 1 1048 1
	addi	sp,sp,-32
	.cfi_def_cfa_offset 32
	sd	ra,24(sp)
	sd	s0,8(sp)
	sd	s1,16(sp)
	.cfi_offset 1, -8
	.cfi_offset 8, -24
	.cfi_offset 9, -16
	.loc 1 1060 4
	extu	a5,a5,6+1-1,6
	bne	a5,a0,.L115
	.loc 1 1061 3 is_stmt 1
	.loc 1 1061 11 is_stmt 0
	lw	s0,0(a1)
.L121:
	.loc 1 1068 3
	li	a5,24
.LBB1438:
.LBB1439:
	.loc 2 140 6
	li	a4,33558528
.LBE1439:
.LBE1438:
	.loc 1 1063 11
	slliw	s0,s0,1
.LVL449:
	.loc 1 1068 2 is_stmt 1
	.loc 1 1068 3 is_stmt 0
	divuw	s0,s0,a5
.LVL450:
	.loc 1 1069 2 is_stmt 1
.LBB1441:
.LBB1440:
	.loc 2 138 2
	.loc 2 140 2
	.loc 2 140 6 is_stmt 0
	lw	a5,16(a4)
.LVL451:
	.loc 2 141 2 is_stmt 1
#APP
# 141 "/tina-d1/lichee/brandy-2.0/spl/include/arch/riscv/asm/io.h" 1
	fence ir,ir
# 0 "" 2
	.loc 2 142 2
.LVL452:
#NO_APP
.LBE1440:
.LBE1441:
	.loc 1 1070 2
	.loc 1 1071 2
	.loc 1 1072 2
	.loc 1 1073 2
	.loc 1 1072 7 is_stmt 0
	li	a2,-524288
	.loc 1 1073 43
	addiw	a3,s0,-1
	.loc 1 1072 7
	addi	a2,a2,252
	.loc 1 1073 48
	slliw	a3,a3,8
	.loc 1 1072 7
	and	a5,a5,a2
.LVL453:
	.loc 1 1073 7
	or	a5,a5,a3
	sext.w	a5,a5
.LVL454:
	.loc 1 1074 2 is_stmt 1
.LBB1442:
.LBB1443:
	.loc 2 96 2
#APP
# 96 "/tina-d1/lichee/brandy-2.0/spl/include/arch/riscv/asm/io.h" 1
	fence ow,ow
# 0 "" 2
	.loc 2 97 2
#NO_APP
.LBE1443:
.LBE1442:
	.loc 1 1073 7 is_stmt 0
	li	a3,-1073741824
	or	a2,a5,a3
.LBB1445:
.LBB1444:
	.loc 2 97 2
	sw	a2,16(a4)
.LVL455:
.LBE1444:
.LBE1445:
	.loc 1 1081 2 is_stmt 1
	li	a2,-536870912
	addi	a2,a2,-1
	and	a5,a5,a2
.LVL456:
	.loc 1 1082 2
.LBB1446:
.LBB1447:
	.loc 2 96 2
#APP
# 96 "/tina-d1/lichee/brandy-2.0/spl/include/arch/riscv/asm/io.h" 1
	fence ow,ow
# 0 "" 2
	.loc 2 97 2
#NO_APP
.LBE1447:
.LBE1446:
	.loc 1 1081 7 is_stmt 0
	or	a3,a5,a3
.LBB1449:
.LBB1448:
	.loc 2 97 2
	sw	a3,16(a4)
.LVL457:
.LBE1448:
.LBE1449:
	.loc 1 1084 2 is_stmt 1
.LBB1450:
.LBB1451:
	.loc 2 96 2
#APP
# 96 "/tina-d1/lichee/brandy-2.0/spl/include/arch/riscv/asm/io.h" 1
	fence ow,ow
# 0 "" 2
	.loc 2 97 2
#NO_APP
.LBE1451:
.LBE1450:
	.loc 1 1084 2 is_stmt 0
	li	a3,-536870912
	or	a5,a5,a3
.LVL458:
.LBB1453:
.LBB1452:
	.loc 2 97 2
	sw	a5,16(a4)
.LBE1452:
.LBE1453:
	.loc 1 1086 32
	li	a3,268435456
.L117:
	.loc 1 1086 43 is_stmt 1 discriminator 1
.LVL459:
.LBB1454:
.LBB1455:
	.loc 2 138 2 discriminator 1
	.loc 2 140 2 discriminator 1
	.loc 2 140 6 is_stmt 0 discriminator 1
	addi	s1,a4,16
	lw	a5,16(a4)
.LVL460:
	.loc 2 141 2 is_stmt 1 discriminator 1
#APP
# 141 "/tina-d1/lichee/brandy-2.0/spl/include/arch/riscv/asm/io.h" 1
	fence ir,ir
# 0 "" 2
	.loc 2 142 2 discriminator 1
.LVL461:
#NO_APP
.LBE1455:
.LBE1454:
	.loc 1 1086 7 is_stmt 0 discriminator 1
	and	a5,a5,a3
	beqz	a5,.L117
	.loc 1 1087 2 is_stmt 1
.LVL462:
.LBB1456:
.LBB1457:
	.loc 1 59 3
	li	a0,20
.LVL463:
	call	sdelay
.LVL464:
.LBE1457:
.LBE1456:
	.loc 1 1089 2
.LBB1458:
.LBB1459:
	.loc 2 138 2
	.loc 2 140 2
	.loc 2 140 6 is_stmt 0
	lw	a5,0(s1)
.LVL465:
	.loc 2 141 2 is_stmt 1
#APP
# 141 "/tina-d1/lichee/brandy-2.0/spl/include/arch/riscv/asm/io.h" 1
	fence ir,ir
# 0 "" 2
	.loc 2 142 2
.LVL466:
#NO_APP
.LBE1459:
.LBE1458:
	.loc 1 1090 2
	.loc 1 1091 2
.LBB1460:
.LBB1461:
	.loc 2 96 2
#APP
# 96 "/tina-d1/lichee/brandy-2.0/spl/include/arch/riscv/asm/io.h" 1
	fence ow,ow
# 0 "" 2
	.loc 2 97 2
#NO_APP
.LBE1461:
.LBE1460:
	.loc 1 1090 7 is_stmt 0
	li	a4,134217728
	or	a5,a5,a4
.LVL467:
.LBB1463:
.LBB1462:
	.loc 2 97 2
	sw	a5,0(s1)
.LVL468:
.LBE1462:
.LBE1463:
	.loc 1 1094 2 is_stmt 1
.LBB1464:
.LBB1465:
	.loc 2 138 2
	.loc 2 140 2
	.loc 2 140 6 is_stmt 0
	li	a3,33562624
	lw	a5,-2048(a3)
.LVL469:
	.loc 2 141 2 is_stmt 1
#APP
# 141 "/tina-d1/lichee/brandy-2.0/spl/include/arch/riscv/asm/io.h" 1
	fence ir,ir
# 0 "" 2
	.loc 2 142 2
.LVL470:
#NO_APP
.LBE1465:
.LBE1464:
	.loc 1 1095 2
	.loc 1 1096 2
	.loc 1 1096 7 is_stmt 0
	li	a4,-50331648
	addi	a4,a4,-772
	and	a5,a5,a4
.LVL471:
	.loc 1 1097 2 is_stmt 1
	.loc 1 1098 2
.LBB1466:
.LBB1467:
	.loc 2 96 2
#APP
# 96 "/tina-d1/lichee/brandy-2.0/spl/include/arch/riscv/asm/io.h" 1
	fence ow,ow
# 0 "" 2
	.loc 2 97 2
#NO_APP
.LBE1467:
.LBE1466:
	.loc 1 1103 1 is_stmt 0
	li	a0,24
	mulw	a0,a0,s0
	ld	ra,24(sp)
	.cfi_remember_state
	.cfi_restore 1
	ld	s0,8(sp)
	.cfi_restore 8
.LVL472:
	.loc 1 1097 7
	li	a4,-2147483648
	or	a5,a5,a4
.LVL473:
.LBB1469:
.LBB1468:
	.loc 2 97 2
	sw	a5,-2048(a3)
.LVL474:
.LBE1468:
.LBE1469:
	.loc 1 1101 2 is_stmt 1
	.loc 1 1102 2
	.loc 1 1103 1 is_stmt 0
	ld	s1,16(sp)
	.cfi_restore 9
	addi	sp,sp,32
	.cfi_def_cfa_offset 0
	jr	ra
.LVL475:
.L115:
	.cfi_restore_state
	.loc 1 1063 3 is_stmt 1
	.loc 1 1063 11 is_stmt 0
	lw	s0,76(a1)
	j	.L121
	.cfi_endproc
.LFE53:
	.size	ccm_set_pll_ddr_clk, .-ccm_set_pll_ddr_clk
	.section	.text.mctl_sys_init,"ax",@progbits
	.align	1
	.globl	mctl_sys_init
	.type	mctl_sys_init, @function
mctl_sys_init:
.LFB54:
	.loc 1 1110 1 is_stmt 1
	.cfi_startproc
.LVL476:
	.loc 1 1112 2
	.loc 1 1113 2
	.loc 1 1119 2
.LBB1470:
.LBB1471:
	.loc 2 138 2
	.loc 2 140 2
.LBE1471:
.LBE1470:
	.loc 1 1110 1 is_stmt 0
	addi	sp,sp,-32
	.cfi_def_cfa_offset 32
	sdd	s0,s1,(sp),0,4
	.cfi_offset 8, -32
	.cfi_offset 9, -24
.LBB1474:
.LBB1472:
	.loc 2 140 6
	li	s1,33558528
.LBE1472:
.LBE1474:
	.loc 1 1110 1
	sd	s2,16(sp)
	sd	ra,24(sp)
	.cfi_offset 18, -16
	.cfi_offset 1, -8
	.loc 1 1110 1
	mv	s2,a0
.LBB1475:
.LBB1473:
	.loc 2 140 6
	lw	a5,1344(s1)
.LVL477:
	.loc 2 141 2 is_stmt 1
#APP
# 141 "/tina-d1/lichee/brandy-2.0/spl/include/arch/riscv/asm/io.h" 1
	fence ir,ir
# 0 "" 2
	.loc 2 142 2
.LVL478:
#NO_APP
.LBE1473:
.LBE1475:
	.loc 1 1120 2
	.loc 1 1121 2
.LBB1476:
.LBB1477:
	.loc 2 96 2
#APP
# 96 "/tina-d1/lichee/brandy-2.0/spl/include/arch/riscv/asm/io.h" 1
	fence ow,ow
# 0 "" 2
	.loc 2 97 2
#NO_APP
.LBE1477:
.LBE1476:
	.loc 1 1120 10 is_stmt 0
	li	a4,-1073741824
	addi	a4,a4,-1
	and	a5,a5,a4
.LVL479:
.LBB1479:
.LBB1478:
	.loc 2 97 2
	sw	a5,1344(s1)
.LVL480:
.LBE1478:
.LBE1479:
	.loc 1 1123 2 is_stmt 1
.LBB1480:
.LBB1481:
	.loc 2 138 2
	.loc 2 140 2
	.loc 2 140 6 is_stmt 0
	li	s0,33562624
	lw	a5,-2036(s0)
.LVL481:
	.loc 2 141 2 is_stmt 1
#APP
# 141 "/tina-d1/lichee/brandy-2.0/spl/include/arch/riscv/asm/io.h" 1
	fence ir,ir
# 0 "" 2
	.loc 2 142 2
.LVL482:
#NO_APP
.LBE1481:
.LBE1480:
	.loc 1 1124 2
	.loc 1 1125 2
.LBB1482:
.LBB1483:
	.loc 2 96 2
#APP
# 96 "/tina-d1/lichee/brandy-2.0/spl/include/arch/riscv/asm/io.h" 1
	fence ow,ow
# 0 "" 2
	.loc 2 97 2
#NO_APP
.LBE1483:
.LBE1482:
	.loc 1 1124 10 is_stmt 0
	andi	a3,a5,-2
.LBB1485:
.LBB1484:
	.loc 2 97 2
	sw	a3,-2036(s0)
.LVL483:
.LBE1484:
.LBE1485:
	.loc 1 1127 2 is_stmt 1
.LBB1486:
.LBB1487:
	.loc 2 138 2
	.loc 2 140 2
	.loc 2 141 2
#APP
# 141 "/tina-d1/lichee/brandy-2.0/spl/include/arch/riscv/asm/io.h" 1
	fence ir,ir
# 0 "" 2
	.loc 2 142 2
.LVL484:
#NO_APP
.LBE1487:
.LBE1486:
	.loc 1 1128 2
	.loc 1 1129 2
.LBB1488:
.LBB1489:
	.loc 2 96 2
#APP
# 96 "/tina-d1/lichee/brandy-2.0/spl/include/arch/riscv/asm/io.h" 1
	fence ow,ow
# 0 "" 2
	.loc 2 97 2
#NO_APP
.LBE1489:
.LBE1488:
	.loc 1 1128 10 is_stmt 0
	li	a3,-65536
	addi	a3,a3,-2
	and	a5,a5,a3
.LVL485:
.LBB1491:
.LBB1490:
	.loc 2 97 2
	sw	a5,-2036(s0)
.LVL486:
.LBE1490:
.LBE1491:
	.loc 1 1132 2 is_stmt 1
.LBB1492:
.LBB1493:
	.loc 2 138 2
	.loc 2 140 2
	.loc 2 140 6 is_stmt 0
	lw	a5,-2048(s0)
.LVL487:
	.loc 2 141 2 is_stmt 1
#APP
# 141 "/tina-d1/lichee/brandy-2.0/spl/include/arch/riscv/asm/io.h" 1
	fence ir,ir
# 0 "" 2
	.loc 2 142 2
.LVL488:
#NO_APP
.LBE1493:
.LBE1492:
	.loc 1 1133 2
	.loc 1 1134 2
.LBB1494:
.LBB1495:
	.loc 2 96 2
#APP
# 96 "/tina-d1/lichee/brandy-2.0/spl/include/arch/riscv/asm/io.h" 1
	fence ow,ow
# 0 "" 2
	.loc 2 97 2
#NO_APP
.LBE1495:
.LBE1494:
	.loc 1 1133 10 is_stmt 0
	and	a4,a5,a4
.LBB1497:
.LBB1496:
	.loc 2 97 2
	sw	a4,-2048(s0)
.LVL489:
.LBE1496:
.LBE1497:
	.loc 1 1136 2 is_stmt 1
.LBB1498:
.LBB1499:
	.loc 2 138 2
	.loc 2 140 2
	.loc 2 141 2
#APP
# 141 "/tina-d1/lichee/brandy-2.0/spl/include/arch/riscv/asm/io.h" 1
	fence ir,ir
# 0 "" 2
	.loc 2 142 2
.LVL490:
#NO_APP
.LBE1499:
.LBE1498:
	.loc 1 1137 2
	.loc 1 1137 10 is_stmt 0
	extu	a5,a5,0+30-1,0
.LVL491:
	sext.w	a5,a5
.LVL492:
	.loc 1 1138 2 is_stmt 1
.LBB1500:
.LBB1501:
	.loc 2 96 2
#APP
# 96 "/tina-d1/lichee/brandy-2.0/spl/include/arch/riscv/asm/io.h" 1
	fence ow,ow
# 0 "" 2
	.loc 2 97 2
#NO_APP
	sw	a5,-2048(s0)
.LVL493:
.LBE1501:
.LBE1500:
	.loc 1 1140 2
.LBB1502:
.LBB1503:
	.loc 2 138 2
	.loc 2 140 2
	.loc 2 141 2
#APP
# 141 "/tina-d1/lichee/brandy-2.0/spl/include/arch/riscv/asm/io.h" 1
	fence ir,ir
# 0 "" 2
	.loc 2 142 2
.LVL494:
#NO_APP
.LBE1503:
.LBE1502:
	.loc 1 1141 2
	.loc 1 1142 2
.LBB1504:
.LBB1505:
	.loc 2 96 2
#APP
# 96 "/tina-d1/lichee/brandy-2.0/spl/include/arch/riscv/asm/io.h" 1
	fence ow,ow
# 0 "" 2
	.loc 2 97 2
#NO_APP
.LBE1505:
.LBE1504:
	.loc 1 1141 10 is_stmt 0
	li	a4,134217728
	or	a5,a5,a4
.LVL495:
.LBB1507:
.LBB1506:
	.loc 2 97 2
	sw	a5,-2048(s0)
.LVL496:
.LBE1506:
.LBE1507:
	.loc 1 1143 2 is_stmt 1
.LBB1508:
.LBB1509:
	.loc 1 59 3
	li	a0,10
.LVL497:
	call	sdelay
.LVL498:
.LBE1509:
.LBE1508:
	.loc 1 1146 2
	.loc 1 1146 12 is_stmt 0
	mv	a1,s2
	li	a0,0
	call	ccm_set_pll_ddr_clk
.LVL499:
	.loc 1 1148 2 is_stmt 1
	.loc 1 1148 27 is_stmt 0
	srliw	a0,a0,1
.LVL500:
	.loc 1 1148 17
	sw	a0,0(s2)
	.loc 1 1149 43 is_stmt 1
	.loc 1 1150 2
.LVL501:
.LBB1510:
.LBB1511:
	.loc 1 59 3
	li	a0,100
	call	sdelay
.LVL502:
.LBE1511:
.LBE1510:
	.loc 1 1170 2
	call	dram_disable_all_master
.LVL503:
	.loc 1 1173 2
.LBB1512:
.LBB1513:
	.loc 2 138 2
	.loc 2 140 2
	.loc 2 140 6 is_stmt 0
	lw	a5,-2036(s0)
.LVL504:
	.loc 2 141 2 is_stmt 1
#APP
# 141 "/tina-d1/lichee/brandy-2.0/spl/include/arch/riscv/asm/io.h" 1
	fence ir,ir
# 0 "" 2
	.loc 2 142 2
.LVL505:
#NO_APP
.LBE1513:
.LBE1512:
	.loc 1 1174 2
	.loc 1 1175 2
.LBB1514:
.LBB1515:
	.loc 2 96 2
#APP
# 96 "/tina-d1/lichee/brandy-2.0/spl/include/arch/riscv/asm/io.h" 1
	fence ow,ow
# 0 "" 2
	.loc 2 97 2
#NO_APP
.LBE1515:
.LBE1514:
	.loc 1 1174 10 is_stmt 0
	li	a4,65536
	or	a5,a5,a4
.LVL506:
.LBB1517:
.LBB1516:
	.loc 2 97 2
	sw	a5,-2036(s0)
.LVL507:
.LBE1516:
.LBE1517:
	.loc 1 1177 2 is_stmt 1
.LBB1518:
.LBB1519:
	.loc 2 138 2
	.loc 2 140 2
	.loc 2 140 6 is_stmt 0
	lw	a4,1344(s1)
.LVL508:
	.loc 2 141 2 is_stmt 1
#APP
# 141 "/tina-d1/lichee/brandy-2.0/spl/include/arch/riscv/asm/io.h" 1
	fence ir,ir
# 0 "" 2
	.loc 2 142 2
.LVL509:
#NO_APP
.LBE1519:
.LBE1518:
	.loc 1 1178 2
	.loc 1 1179 2
.LBB1520:
.LBB1521:
	.loc 2 96 2
#APP
# 96 "/tina-d1/lichee/brandy-2.0/spl/include/arch/riscv/asm/io.h" 1
	fence ow,ow
# 0 "" 2
	.loc 2 97 2
#NO_APP
.LBE1521:
.LBE1520:
	.loc 1 1178 10 is_stmt 0
	li	a3,1073741824
	or	a4,a4,a3
.LVL510:
.LBB1523:
.LBB1522:
	.loc 2 97 2
	sw	a4,1344(s1)
.LVL511:
.LBE1522:
.LBE1523:
	.loc 1 1181 2 is_stmt 1
.LBB1524:
.LBB1525:
	.loc 2 138 2
	.loc 2 140 2
	.loc 2 140 6 is_stmt 0
	lw	a5,-2048(s0)
.LVL512:
	.loc 2 141 2 is_stmt 1
#APP
# 141 "/tina-d1/lichee/brandy-2.0/spl/include/arch/riscv/asm/io.h" 1
	fence ir,ir
# 0 "" 2
	.loc 2 142 2
.LVL513:
#NO_APP
.LBE1525:
.LBE1524:
	.loc 1 1182 2
	.loc 1 1183 2
.LBB1526:
.LBB1527:
	.loc 2 96 2
#APP
# 96 "/tina-d1/lichee/brandy-2.0/spl/include/arch/riscv/asm/io.h" 1
	fence ow,ow
# 0 "" 2
	.loc 2 97 2
#NO_APP
.LBE1527:
.LBE1526:
	.loc 1 1182 10 is_stmt 0
	or	a5,a5,a3
.LVL514:
.LBB1529:
.LBB1528:
	.loc 2 97 2
	sw	a5,-2048(s0)
.LVL515:
.LBE1528:
.LBE1529:
	.loc 1 1184 2 is_stmt 1
.LBB1530:
.LBB1531:
	.loc 1 59 3
	li	a0,5
	call	sdelay
.LVL516:
.LBE1531:
.LBE1530:
	.loc 1 1187 2
.LBB1532:
.LBB1533:
	.loc 2 138 2
	.loc 2 140 2
	.loc 2 140 6 is_stmt 0
	lw	a5,-2036(s0)
.LVL517:
	.loc 2 141 2 is_stmt 1
#APP
# 141 "/tina-d1/lichee/brandy-2.0/spl/include/arch/riscv/asm/io.h" 1
	fence ir,ir
# 0 "" 2
	.loc 2 142 2
.LVL518:
#NO_APP
.LBE1533:
.LBE1532:
	.loc 1 1188 2
	.loc 1 1189 2
.LBB1534:
.LBB1535:
	.loc 2 96 2
#APP
# 96 "/tina-d1/lichee/brandy-2.0/spl/include/arch/riscv/asm/io.h" 1
	fence ow,ow
# 0 "" 2
	.loc 2 97 2
#NO_APP
.LBE1535:
.LBE1534:
	.loc 1 1188 10 is_stmt 0
	ori	a5,a5,1
.LVL519:
.LBB1537:
.LBB1536:
	.loc 2 97 2
	sw	a5,-2036(s0)
.LVL520:
.LBE1536:
.LBE1537:
	.loc 1 1196 2 is_stmt 1
.LBB1538:
.LBB1539:
	.loc 2 138 2
	.loc 2 140 2
	.loc 2 140 6 is_stmt 0
	lw	a5,-2048(s0)
.LVL521:
	.loc 2 141 2 is_stmt 1
#APP
# 141 "/tina-d1/lichee/brandy-2.0/spl/include/arch/riscv/asm/io.h" 1
	fence ir,ir
# 0 "" 2
	.loc 2 142 2
.LVL522:
#NO_APP
.LBE1539:
.LBE1538:
	.loc 1 1197 2
	.loc 1 1198 2
.LBB1540:
.LBB1541:
	.loc 2 96 2
#APP
# 96 "/tina-d1/lichee/brandy-2.0/spl/include/arch/riscv/asm/io.h" 1
	fence ow,ow
# 0 "" 2
	.loc 2 97 2
#NO_APP
.LBE1541:
.LBE1540:
	.loc 1 1197 10 is_stmt 0
	li	a4,-2147483648
	or	a4,a5,a4
.LBB1543:
.LBB1542:
	.loc 2 97 2
	sw	a4,-2048(s0)
.LVL523:
.LBE1542:
.LBE1543:
	.loc 1 1200 2 is_stmt 1
.LBB1544:
.LBB1545:
	.loc 2 138 2
	.loc 2 140 2
	.loc 2 141 2
#APP
# 141 "/tina-d1/lichee/brandy-2.0/spl/include/arch/riscv/asm/io.h" 1
	fence ir,ir
# 0 "" 2
	.loc 2 142 2
.LVL524:
#NO_APP
.LBE1545:
.LBE1544:
	.loc 1 1201 2
	.loc 1 1202 2
.LBB1546:
.LBB1547:
	.loc 2 96 2
#APP
# 96 "/tina-d1/lichee/brandy-2.0/spl/include/arch/riscv/asm/io.h" 1
	fence ow,ow
# 0 "" 2
	.loc 2 97 2
#NO_APP
.LBE1547:
.LBE1546:
	.loc 1 1201 10 is_stmt 0
	li	a4,-2013265920
	or	a5,a5,a4
.LVL525:
.LBB1549:
.LBB1548:
	.loc 2 97 2
	sw	a5,-2048(s0)
.LVL526:
.LBE1548:
.LBE1549:
	.loc 1 1203 2 is_stmt 1
.LBB1550:
.LBB1551:
	.loc 1 59 3
	li	a0,5
	call	sdelay
.LVL527:
.LBE1551:
.LBE1550:
	.loc 1 1214 2
.LBB1552:
.LBB1553:
	.loc 2 96 2
#APP
# 96 "/tina-d1/lichee/brandy-2.0/spl/include/arch/riscv/asm/io.h" 1
	fence ow,ow
# 0 "" 2
	.loc 2 97 2
#NO_APP
	li	a5,51392512
	li	a4,32768
.LBE1553:
.LBE1552:
.LBB1555:
.LBB1556:
	.loc 1 59 3 is_stmt 0
	li	a0,10
.LBE1556:
.LBE1555:
.LBB1558:
.LBB1554:
	.loc 2 97 2
	sw	a4,12(a5)
.LVL528:
.LBE1554:
.LBE1558:
	.loc 1 1215 2 is_stmt 1
.LBB1559:
.LBB1557:
	.loc 1 59 3
	call	sdelay
.LVL529:
.LBE1557:
.LBE1559:
	.loc 1 1218 2
	.loc 1 1220 1 is_stmt 0
	ld	ra,24(sp)
	.cfi_restore 1
	ldd	s0,s1,(sp),0,4
	.cfi_restore 9
	.cfi_restore 8
	ld	s2,16(sp)
	.cfi_restore 18
.LVL530:
	li	a0,0
	addi	sp,sp,32
	.cfi_def_cfa_offset 0
	jr	ra
	.cfi_endproc
.LFE54:
	.size	mctl_sys_init, .-mctl_sys_init
	.section	.text.mctl_com_init,"ax",@progbits
	.align	1
	.globl	mctl_com_init
	.type	mctl_com_init, @function
mctl_com_init:
.LFB55:
	.loc 1 1228 1 is_stmt 1
	.cfi_startproc
.LVL531:
	.loc 1 1229 2
	.loc 1 1230 2
	.loc 1 1237 2
.LBB1560:
.LBB1561:
	.loc 2 138 2
	.loc 2 140 2
	.loc 2 140 6 is_stmt 0
	li	a4,51388416
	lw	a5,8(a4)
.LVL532:
	.loc 2 141 2 is_stmt 1
#APP
# 141 "/tina-d1/lichee/brandy-2.0/spl/include/arch/riscv/asm/io.h" 1
	fence ir,ir
# 0 "" 2
	.loc 2 142 2
.LVL533:
#NO_APP
.LBE1561:
.LBE1560:
	.loc 1 1238 2
	.loc 1 1238 10 is_stmt 0
	li	a3,-16384
	addi	a3,a3,255
	and	a5,a5,a3
.LVL534:
	.loc 1 1239 2 is_stmt 1
	.loc 1 1240 2
.LBB1562:
.LBB1563:
	.loc 2 96 2
#APP
# 96 "/tina-d1/lichee/brandy-2.0/spl/include/arch/riscv/asm/io.h" 1
	fence ow,ow
# 0 "" 2
	.loc 2 97 2
#NO_APP
.LBE1563:
.LBE1562:
	.loc 1 1239 10 is_stmt 0
	li	a3,8192
	or	a5,a5,a3
.LVL535:
.LBB1565:
.LBB1564:
	.loc 2 97 2
	sw	a5,8(a4)
.LVL536:
.LBE1564:
.LBE1565:
	.loc 1 1242 2 is_stmt 1
.LBB1566:
.LBB1567:
	.loc 2 138 2
	.loc 2 140 2
	.loc 2 140 6 is_stmt 0
	lw	a5,0(a4)
.LVL537:
	.loc 2 141 2 is_stmt 1
#APP
# 141 "/tina-d1/lichee/brandy-2.0/spl/include/arch/riscv/asm/io.h" 1
	fence ir,ir
# 0 "" 2
	.loc 2 142 2
.LVL538:
#NO_APP
.LBE1567:
.LBE1566:
	.loc 1 1243 2
	.loc 1 1247 19 is_stmt 0
	lw	a2,4(a0)
	.loc 1 1243 10
	li	a4,-16773120
	addi	a4,a4,-1
	and	a5,a5,a4
.LVL539:
	.loc 1 1245 2 is_stmt 1
	.loc 1 1247 2
	.loc 1 1247 39 is_stmt 0
	li	a3,458752
	slliw	a4,a2,16
	and	a4,a4,a3
.LVL540:
	.loc 1 1249 2 is_stmt 1
	.loc 1 1249 35 is_stmt 0
	lw	a3,20(a0)
	or	a5,a4,a5
.LVL541:
	.loc 1 1251 4
	addiw	a2,a2,-6
	.loc 1 1249 56
	andi	a3,a3,1
	seqz	a3,a3
	slli	a3,a3,12
	or	a4,a5,a3
.LVL542:
	.loc 1 1251 2 is_stmt 1
	.loc 1 1251 4 is_stmt 0
	li	a5,1
	bgtu	a2,a5,.L126
	.loc 1 1252 3 is_stmt 1
	.loc 1 1252 11 is_stmt 0
	li	a5,4718592
.LVL543:
.L151:
	.loc 1 1254 11
	or	a5,a5,a4
.LVL544:
	.loc 1 1255 2 is_stmt 1
.LBB1568:
.LBB1569:
	.loc 2 96 2
#APP
# 96 "/tina-d1/lichee/brandy-2.0/spl/include/arch/riscv/asm/io.h" 1
	fence ow,ow
# 0 "" 2
	.loc 2 97 2
#NO_APP
	li	a4,51388416
	sw	a5,0(a4)
.LVL545:
.LBE1569:
.LBE1568:
	.loc 1 1257 2
	.loc 1 1257 10 is_stmt 0
	lw	a5,20(a0)
.LVL546:
	.loc 1 1230 22
	li	a1,1
	.loc 1 1257 23
	andi	a4,a5,256
.LVL547:
	.loc 1 1257 4
	beqz	a4,.L128
	.loc 1 1257 37 discriminator 1
	extu	a5,a5,12+4-1,12
	bne	a5,a1,.L128
	.loc 1 1258 12
	li	a1,2
.L128:
.LVL548:
	.loc 1 1260 2 is_stmt 1
	.loc 1 1278 13 is_stmt 0
	li	a6,4096
	addi	t4,a6,-2048
	.loc 1 1275 13
	addi	t6,a6,-1792
	slli	a1,a1,4
.LVL549:
	.loc 1 1258 12
	li	a2,0
	li	a7,51388416
.LVL550:
	.loc 1 1263 11
	li	t3,-4096
	li	t1,2
	li	t5,4
	li	t0,8
	.loc 1 1272 13
	addi	a6,a6,-1536
	li	t2,1
.LVL551:
.L135:
	.loc 1 1262 3 is_stmt 1
.LBB1570:
.LBB1571:
	.loc 2 138 2
	.loc 2 140 2
	.loc 2 140 6 is_stmt 0
	lw	a5,0(a7)
.LVL552:
	.loc 2 141 2 is_stmt 1
#APP
# 141 "/tina-d1/lichee/brandy-2.0/spl/include/arch/riscv/asm/io.h" 1
	fence ir,ir
# 0 "" 2
	.loc 2 142 2
.LVL553:
#NO_APP
.LBE1571:
.LBE1570:
	.loc 1 1263 3
	.loc 1 1264 3
	.loc 1 1265 3
	.loc 1 1264 34 is_stmt 0
	lwd	a4,a3,(a0),2,3
	.loc 1 1263 11
	and	a5,a5,t3
.LVL554:
	.loc 1 1264 40
	extu	a3,a3,12+2-1,12
	or	a3,a3,a5
	.loc 1 1265 44
	addiw	a5,a2,12
	.loc 1 1265 33
	srlw	a5,a4,a5
	.loc 1 1265 58
	slliw	a5,a5,2
	andi	a5,a5,4
	sext.w	a3,a3
	.loc 1 1265 11
	or	a3,a5,a3
.LVL555:
	.loc 1 1266 3 is_stmt 1
	.loc 1 1266 47 is_stmt 0
	addiw	a5,a2,4
	.loc 1 1266 36
	srlw	a5,a4,a5
	.loc 1 1266 66
	addiw	a5,a5,-1
	.loc 1 1266 73
	slliw	a5,a5,4
	andi	a5,a5,255
	.loc 1 1268 30
	srlw	a4,a4,a2
	.loc 1 1266 11
	or	a5,a5,a3
.LVL556:
	.loc 1 1268 3 is_stmt 1
	.loc 1 1268 47 is_stmt 0
	andi	a4,a4,15
	.loc 1 1278 13
	or	a3,a5,t4
	beq	a4,t1,.L134
	bgtu	a4,t1,.L130
	.loc 1 1281 13
	ori	a3,a5,1792
	beq	a4,t2,.L134
.L132:
	.loc 1 1284 5 is_stmt 1
	.loc 1 1284 13 is_stmt 0
	ori	a3,a5,1536
.LVL557:
	.loc 1 1285 5 is_stmt 1
	j	.L134
.LVL558:
.L126:
	.loc 1 1254 3
	.loc 1 1254 34 is_stmt 0
	lw	a5,92(a0)
	.loc 1 1254 47
	li	a3,524288
	.loc 1 1254 34
	srliw	a5,a5,5
	.loc 1 1254 47
	slliw	a5,a5,19
	and	a5,a5,a3
	.loc 1 1254 11
	or	a5,a5,a4
	li	a4,4194304
.LVL559:
	j	.L151
.LVL560:
.L130:
	.loc 1 1275 13
	or	a3,a5,t6
	beq	a4,t5,.L134
	.loc 1 1272 13
	or	a3,a5,a6
	bne	a4,t0,.L132
.LVL561:
.L134:
	.loc 1 1287 3 is_stmt 1 discriminator 2
.LBB1572:
.LBB1573:
	.loc 2 96 2 discriminator 2
#APP
# 96 "/tina-d1/lichee/brandy-2.0/spl/include/arch/riscv/asm/io.h" 1
	fence ow,ow
# 0 "" 2
	.loc 2 97 2 discriminator 2
#NO_APP
	swia	a3,(a7),4,0
.LVL562:
	addiw	a2,a2,16
.LBE1573:
.LBE1572:
	.loc 1 1260 2 is_stmt 0 discriminator 2
	bne	a1,a2,.L135
	.loc 1 1289 62 is_stmt 1
	.loc 1 1290 2
	.loc 1 1294 2
.LVL563:
.LBB1574:
.LBB1575:
	.loc 2 138 2
	.loc 2 140 2
	.loc 2 140 6 is_stmt 0
	li	a5,51388416
	lw	a5,0(a5)
.LVL564:
	.loc 2 141 2 is_stmt 1
#APP
# 141 "/tina-d1/lichee/brandy-2.0/spl/include/arch/riscv/asm/io.h" 1
	fence ir,ir
# 0 "" 2
	.loc 2 142 2
.LVL565:
#NO_APP
.LBE1575:
.LBE1574:
	.loc 1 1295 2
	.loc 1 1295 4 is_stmt 0
	andi	a5,a5,1
.LVL566:
	.loc 1 1296 11
	li	a3,771
	.loc 1 1295 4
	bnez	a5,.L136
	.loc 1 1298 11
	li	a3,513
.L136:
.LVL567:
	.loc 1 1299 2 is_stmt 1
.LBB1576:
.LBB1577:
	.loc 2 96 2
#APP
# 96 "/tina-d1/lichee/brandy-2.0/spl/include/arch/riscv/asm/io.h" 1
	fence ow,ow
# 0 "" 2
	.loc 2 97 2
#NO_APP
	li	a4,51392512
	sw	a3,288(a4)
.LVL568:
.LBE1577:
.LBE1576:
	.loc 1 1300 38
	.loc 1 1303 2
	.loc 1 1303 22 is_stmt 0
	lw	a5,20(a0)
	.loc 1 1303 4
	andi	a5,a5,1
	beqz	a5,.L137
	.loc 1 1305 3 is_stmt 1
.LVL569:
.LBB1578:
.LBB1579:
	.loc 2 96 2
#APP
# 96 "/tina-d1/lichee/brandy-2.0/spl/include/arch/riscv/asm/io.h" 1
	fence ow,ow
# 0 "" 2
	.loc 2 97 2
#NO_APP
	sw	zero,964(a4)
.LVL570:
.L137:
.LBE1579:
.LBE1578:
	.loc 1 1310 2
	.loc 1 1310 4 is_stmt 0
	lw	a5,56(a0)
	beqz	a5,.L124
	.loc 1 1312 3 is_stmt 1
.LVL571:
.LBB1580:
.LBB1581:
	.loc 2 138 2
	.loc 2 140 2
	.loc 2 140 6 is_stmt 0
	li	a4,51388416
.LVL572:
	lw	a3,0(a4)
.LVL573:
	.loc 2 141 2 is_stmt 1
#APP
# 141 "/tina-d1/lichee/brandy-2.0/spl/include/arch/riscv/asm/io.h" 1
	fence ir,ir
# 0 "" 2
	.loc 2 142 2
.LVL574:
#NO_APP
.LBE1581:
.LBE1580:
	.loc 1 1313 3
	.loc 1 1313 39 is_stmt 0
	lw	a5,56(a0)
	li	a2,100663296
	slliw	a5,a5,25
	and	a5,a5,a2
	.loc 1 1313 11
	or	a5,a5,a3
.LVL575:
	.loc 1 1314 3 is_stmt 1
.LBB1582:
.LBB1583:
	.loc 2 96 2
#APP
# 96 "/tina-d1/lichee/brandy-2.0/spl/include/arch/riscv/asm/io.h" 1
	fence ow,ow
# 0 "" 2
	.loc 2 97 2
#NO_APP
	sw	a5,0(a4)
.LVL576:
.LBE1583:
.LBE1582:
	.loc 1 1316 3
.LBB1584:
.LBB1585:
	.loc 2 138 2
	.loc 2 140 2
	.loc 2 140 6 is_stmt 0
	lw	a3,4(a4)
.LVL577:
	.loc 2 141 2 is_stmt 1
#APP
# 141 "/tina-d1/lichee/brandy-2.0/spl/include/arch/riscv/asm/io.h" 1
	fence ir,ir
# 0 "" 2
	.loc 2 142 2
.LVL578:
#NO_APP
.LBE1585:
.LBE1584:
	.loc 1 1317 3
	.loc 1 1317 33 is_stmt 0
	lw	a5,56(a0)
	.loc 1 1317 48
	li	a2,2093056
	.loc 1 1317 33
	srliw	a5,a5,2
	.loc 1 1317 48
	slliw	a5,a5,12
	and	a5,a5,a2
	.loc 1 1317 11
	or	a5,a5,a3
.LVL579:
	.loc 1 1318 3 is_stmt 1
.LBB1586:
.LBB1587:
	.loc 2 96 2
#APP
# 96 "/tina-d1/lichee/brandy-2.0/spl/include/arch/riscv/asm/io.h" 1
	fence ow,ow
# 0 "" 2
	.loc 2 97 2
#NO_APP
	sw	a5,4(a4)
.LVL580:
.L124:
.LBE1587:
.LBE1586:
	.loc 1 1320 1 is_stmt 0
	ret
	.cfi_endproc
.LFE55:
	.size	mctl_com_init, .-mctl_com_init
	.section	.text.mctl_phy_ac_remapping,"ax",@progbits
	.align	1
	.globl	mctl_phy_ac_remapping
	.type	mctl_phy_ac_remapping, @function
mctl_phy_ac_remapping:
.LFB56:
	.loc 1 1329 1 is_stmt 1
	.cfi_startproc
.LVL581:
	.loc 1 1332 2
.LBB1588:
.LBB1589:
	.loc 2 138 2
	.loc 2 140 2
.LBE1589:
.LBE1588:
	.loc 1 1329 1 is_stmt 0
	addi	sp,sp,-224
	.cfi_def_cfa_offset 224
.LBB1592:
.LBB1590:
	.loc 2 140 6
	li	a5,50356224
.LBE1590:
.LBE1592:
	.loc 1 1329 1
	sd	s0,208(sp)
	sd	s1,200(sp)
	sd	ra,216(sp)
	.cfi_offset 8, -16
	.cfi_offset 9, -24
	.cfi_offset 1, -8
	.loc 1 1329 1
	mv	s1,a0
.LBB1593:
.LBB1591:
	.loc 2 140 6
	lw	s0,552(a5)
.LVL582:
	.loc 2 141 2 is_stmt 1
#APP
# 141 "/tina-d1/lichee/brandy-2.0/spl/include/arch/riscv/asm/io.h" 1
	fence ir,ir
# 0 "" 2
	.loc 2 142 2
.LVL583:
#NO_APP
.LBE1591:
.LBE1593:
	.loc 1 1334 7 is_stmt 0
	lui	a5,%hi(.LANCHOR0)
	addi	a5,a5,%lo(.LANCHOR0)
	ld	a3,352(a5)
	ld	a4,366(a5)
	.loc 1 1333 7
	sd	zero,0(sp)
	.loc 1 1334 7
	sd	a3,24(sp)
	ld	a3,360(a5)
	.loc 1 1333 7
	sd	zero,8(sp)
	sw	zero,16(sp)
	.loc 1 1334 7
	sd	a3,32(sp)
	.loc 1 1335 7
	ld	a3,376(a5)
	.loc 1 1334 7
	sd	a4,38(sp)
	.loc 1 1335 7
	ld	a4,390(a5)
	sd	a3,48(sp)
	ld	a3,384(a5)
	.loc 1 1333 7
	sh	zero,20(sp)
	.loc 1 1332 6
	extu	s0,s0,8+4-1,8
.LVL584:
	.loc 1 1333 2 is_stmt 1
	.loc 1 1334 2
	.loc 1 1335 2
	.loc 1 1335 7 is_stmt 0
	sd	a3,56(sp)
	.loc 1 1336 7
	ld	a3,400(a5)
	.loc 1 1335 7
	sd	a4,62(sp)
	.loc 1 1336 2 is_stmt 1
	.loc 1 1336 7 is_stmt 0
	ld	a4,414(a5)
	sd	a3,72(sp)
	ld	a3,408(a5)
	.loc 1 1353 2
	lui	a0,%hi(.LC11)
.LVL585:
	mv	a1,s0
	.loc 1 1336 7
	sd	a3,80(sp)
	.loc 1 1337 7
	ld	a3,424(a5)
	.loc 1 1336 7
	sd	a4,86(sp)
	.loc 1 1337 2 is_stmt 1
	.loc 1 1337 7 is_stmt 0
	ld	a4,438(a5)
	sd	a3,96(sp)
	ld	a3,432(a5)
	.loc 1 1353 2
	addi	a0,a0,%lo(.LC11)
	.loc 1 1337 7
	sd	a3,104(sp)
	.loc 1 1338 7
	ld	a3,448(a5)
	.loc 1 1337 7
	sd	a4,110(sp)
	.loc 1 1338 2 is_stmt 1
	.loc 1 1338 7 is_stmt 0
	sd	a3,120(sp)
	ld	a3,456(a5)
	sd	a3,128(sp)
	ld	a4,462(a5)
	.loc 1 1345 7
	ld	a3,472(a5)
	.loc 1 1338 7
	sd	a4,134(sp)
	.loc 1 1345 2 is_stmt 1
	.loc 1 1345 7 is_stmt 0
	sd	a3,144(sp)
	ld	a3,480(a5)
	ld	a4,486(a5)
	sd	a3,152(sp)
	sd	a4,158(sp)
	.loc 1 1352 2 is_stmt 1
	.loc 1 1352 7 is_stmt 0
	addi	a4,a5,496
	ld	a5,496(a5)
	sd	a5,168(sp)
	ld	a5,8(a4)
	sd	a5,176(sp)
	ld	a5,14(a4)
	sd	a5,182(sp)
	.loc 1 1353 2 is_stmt 1
	call	sys_uart_printf
.LVL586:
	.loc 1 1355 2
	.loc 1 1355 24 is_stmt 0
	lw	a5,92(s1)
	.loc 1 1355 4
	extu	a5,a5,18+2-1,18
	bnez	a5,.L153
	.loc 1 1358 4 is_stmt 1
	addiw	a3,s0,-8
	li	a5,6
	bgtu	a3,a5,.L154
	lui	a5,%hi(.L156)
	addi	a5,a5,%lo(.L156)
	lurw	a5,a5,a3,2
	jr	a5
	.section	.rodata
	.align	2
	.align	2
.L156:
	.word	.L160
	.word	.L159
	.word	.L158
	.word	.L154
	.word	.L157
	.word	.L155
	.word	.L155
	.section	.text.mctl_phy_ac_remapping
.L157:
	.loc 1 1366 5
	li	a2,22
	addi	a1,sp,24
.L165:
	.loc 1 1410 1 is_stmt 0
	mv	a0,sp
	call	memcpy_self
.LVL587:
.L155:
	.loc 1 1412 2 is_stmt 1
	.loc 1 1412 14 is_stmt 0
	lw	a5,4(s1)
	li	a4,2
	beq	a5,a4,.L161
	li	a4,3
	beq	a5,a4,.L162
.LVL588:
.L152:
	.loc 1 1442 1
	ld	ra,216(sp)
	.cfi_remember_state
	.cfi_restore 1
	ld	s0,208(sp)
	.cfi_restore 8
	ld	s1,200(sp)
	.cfi_restore 9
.LVL589:
	addi	sp,sp,224
	.cfi_def_cfa_offset 0
	jr	ra
.LVL590:
.L160:
	.cfi_restore_state
	.loc 1 1375 4 is_stmt 1
	li	a2,22
	addi	a1,sp,48
	j	.L165
.L159:
	.loc 1 1384 4
	li	a2,22
	addi	a1,sp,72
	j	.L165
.L158:
	.loc 1 1392 5
	li	a2,22
	addi	a1,sp,120
	j	.L165
.L154:
	.loc 1 1404 5
	li	a2,22
	addi	a1,sp,96
	j	.L165
.L153:
	.loc 1 1410 1
	li	a2,22
	addi	a1,sp,168
	j	.L165
.L161:
	.loc 1 1416 6
	.loc 1 1416 8 is_stmt 0
	addiw	s0,s0,-13
.LVL591:
	li	a5,1
	bgtu	s0,a5,.L152
	.loc 1 1417 7 is_stmt 1
	li	a2,22
	addi	a1,sp,144
	mv	a0,sp
	call	memcpy_self
.LVL592:
	.loc 1 1419 6
.L162:
	.loc 1 1428 6
	lbu	a5,0(sp)
	lbu	a4,1(sp)
	slliw	a5,a5,5
	slliw	a4,a4,10
	or	a5,a5,a4
	lbu	a4,2(sp)
	slliw	a4,a4,15
	or	a5,a5,a4
	lbu	a4,3(sp)
	slliw	a4,a4,20
	or	a5,a5,a4
	lbu	a4,4(sp)
	slliw	a4,a4,25
	or	a5,a5,a4
	sext.w	a5,a5
.LVL593:
.LBB1594:
.LBB1595:
	.loc 2 96 2
#APP
# 96 "/tina-d1/lichee/brandy-2.0/spl/include/arch/riscv/asm/io.h" 1
	fence ow,ow
# 0 "" 2
	.loc 2 97 2
#NO_APP
	li	a4,51388416
	sw	a5,1280(a4)
.LVL594:
.LBE1595:
.LBE1594:
	.loc 1 1429 6
	lbu	a5,6(sp)
	lbu	a3,7(sp)
	slliw	a5,a5,5
	slliw	a3,a3,10
	or	a5,a5,a3
	lbu	a3,5(sp)
	or	a5,a5,a3
	lbu	a3,8(sp)
	slliw	a3,a3,15
	or	a5,a5,a3
	lbu	a3,9(sp)
	slliw	a3,a3,20
	or	a5,a5,a3
	lbu	a3,10(sp)
	slliw	a3,a3,25
	or	a5,a5,a3
	sext.w	a5,a5
.LVL595:
.LBB1596:
.LBB1597:
	.loc 2 96 2
#APP
# 96 "/tina-d1/lichee/brandy-2.0/spl/include/arch/riscv/asm/io.h" 1
	fence ow,ow
# 0 "" 2
	.loc 2 97 2
#NO_APP
	sw	a5,1284(a4)
.LVL596:
.LBE1597:
.LBE1596:
	.loc 1 1430 6
	lbu	a5,12(sp)
	lbu	a3,13(sp)
	slliw	a5,a5,5
	slliw	a3,a3,10
	or	a5,a5,a3
	lbu	a3,11(sp)
	or	a5,a5,a3
	lbu	a3,14(sp)
	slliw	a3,a3,15
	or	a5,a5,a3
	lbu	a3,15(sp)
	slliw	a3,a3,20
	or	a5,a5,a3
.LVL597:
.LBB1598:
.LBB1599:
	.loc 2 96 2
#APP
# 96 "/tina-d1/lichee/brandy-2.0/spl/include/arch/riscv/asm/io.h" 1
	fence ow,ow
# 0 "" 2
	.loc 2 97 2
#NO_APP
	sw	a5,1288(a4)
.LVL598:
.LBE1599:
.LBE1598:
	.loc 1 1431 6
	lbu	a5,17(sp)
	lbu	a3,18(sp)
	slliw	a5,a5,5
	slliw	a3,a3,10
	or	a5,a5,a3
	lbu	a3,16(sp)
	or	a5,a5,a3
	lbu	a3,19(sp)
	slliw	a3,a3,15
	or	a5,a5,a3
	lbu	a3,20(sp)
	slliw	a3,a3,20
	or	a5,a5,a3
	lbu	a3,21(sp)
	slliw	a3,a3,25
	or	a5,a5,a3
	sext.w	a5,a5
.LVL599:
.LBB1600:
.LBB1601:
	.loc 2 96 2
#APP
# 96 "/tina-d1/lichee/brandy-2.0/spl/include/arch/riscv/asm/io.h" 1
	fence ow,ow
# 0 "" 2
	.loc 2 97 2
#NO_APP
	sw	a5,1292(a4)
.LVL600:
.LBE1601:
.LBE1600:
	.loc 1 1432 6
	lbu	a5,0(sp)
	lbu	a3,4(sp)
	slliw	a5,a5,5
	slliw	a3,a3,25
	or	a5,a5,a3
	lbu	a3,1(sp)
	slliw	a3,a3,10
	or	a5,a5,a3
	lbu	a3,2(sp)
	slliw	a3,a3,15
	or	a5,a5,a3
	lbu	a3,3(sp)
	slliw	a3,a3,20
	or	a5,a5,a3
	ori	a5,a5,1
	sext.w	a5,a5
.LVL601:
.LBB1602:
.LBB1603:
	.loc 2 96 2
#APP
# 96 "/tina-d1/lichee/brandy-2.0/spl/include/arch/riscv/asm/io.h" 1
	fence ow,ow
# 0 "" 2
	.loc 2 97 2
#NO_APP
	sw	a5,1280(a4)
.LBE1603:
.LBE1602:
	.loc 1 1442 1 is_stmt 0
	j	.L152
	.cfi_endproc
.LFE56:
	.size	mctl_phy_ac_remapping, .-mctl_phy_ac_remapping
	.section	.text.mctl_channel_init,"ax",@progbits
	.align	1
	.globl	mctl_channel_init
	.type	mctl_channel_init, @function
mctl_channel_init:
.LFB57:
	.loc 1 1505 1 is_stmt 1
	.cfi_startproc
.LVL602:
	.loc 1 1506 2
	.loc 1 1507 2
	.loc 1 1508 2
	.loc 1 1509 2
	.loc 1 1511 2
	.loc 1 1505 1 is_stmt 0
	addi	sp,sp,-48
	.cfi_def_cfa_offset 48
	sd	s1,16(sp)
	.cfi_offset 9, -32
	.loc 1 1511 38
	lw	s1,92(a1)
.LBB1604:
.LBB1605:
	.loc 2 140 6
	li	a3,51388416
.LBE1605:
.LBE1604:
	.loc 1 1505 1
	sd	s2,24(sp)
	sd	ra,40(sp)
	sd	s0,8(sp)
	sd	s3,32(sp)
	.cfi_offset 18, -24
	.cfi_offset 1, -8
	.cfi_offset 8, -40
	.cfi_offset 19, -16
	.loc 1 1505 1
	mv	s2,a1
	.loc 1 1511 18
	extu	s1,s1,2+2-1,2
.LVL603:
	.loc 1 1515 2 is_stmt 1
.LBB1607:
.LBB1606:
	.loc 2 138 2
	.loc 2 140 2
	.loc 2 140 6 is_stmt 0
	lw	a5,12(a3)
.LVL604:
	.loc 2 141 2 is_stmt 1
#APP
# 141 "/tina-d1/lichee/brandy-2.0/spl/include/arch/riscv/asm/io.h" 1
	fence ir,ir
# 0 "" 2
	.loc 2 142 2
.LVL605:
#NO_APP
.LBE1606:
.LBE1607:
	.loc 1 1516 2
	.loc 1 1516 10 is_stmt 0
	li	a4,-4096
	and	a5,a5,a4
.LVL606:
	.loc 1 1517 2 is_stmt 1
	.loc 1 1517 30 is_stmt 0
	lw	a4,0(a1)
	srliw	a4,a4,1
	.loc 1 1517 34
	addiw	a4,a4,-1
	.loc 1 1517 10
	or	a5,a5,a4
.LVL607:
	sext.w	a5,a5
.LVL608:
	.loc 1 1518 2 is_stmt 1
.LBB1608:
.LBB1609:
	.loc 2 96 2
#APP
# 96 "/tina-d1/lichee/brandy-2.0/spl/include/arch/riscv/asm/io.h" 1
	fence ow,ow
# 0 "" 2
	.loc 2 97 2
#NO_APP
.LBE1609:
.LBE1608:
.LBB1611:
.LBB1612:
	.loc 2 140 6 is_stmt 0
	li	a4,51392512
.LBE1612:
.LBE1611:
.LBB1614:
.LBB1610:
	.loc 2 97 2
	sw	a5,12(a3)
.LVL609:
.LBE1610:
.LBE1614:
	.loc 1 1522 2 is_stmt 1
.LBB1615:
.LBB1613:
	.loc 2 138 2
	.loc 2 140 2
	.loc 2 140 6 is_stmt 0
	lw	a5,264(a4)
.LVL610:
	.loc 2 141 2 is_stmt 1
#APP
# 141 "/tina-d1/lichee/brandy-2.0/spl/include/arch/riscv/asm/io.h" 1
	fence ir,ir
# 0 "" 2
	.loc 2 142 2
.LVL611:
#NO_APP
.LBE1613:
.LBE1615:
	.loc 1 1523 2
	.loc 1 1524 2
	.loc 1 1525 2
	.loc 1 1525 10 is_stmt 0
	li	a3,-4096
	addi	a3,a3,255
	and	a5,a5,a3
.LVL612:
	.loc 1 1526 2 is_stmt 1
	.loc 1 1527 2
.LBB1616:
.LBB1617:
	.loc 2 96 2
#APP
# 96 "/tina-d1/lichee/brandy-2.0/spl/include/arch/riscv/asm/io.h" 1
	fence ow,ow
# 0 "" 2
	.loc 2 97 2
#NO_APP
.LBE1617:
.LBE1616:
	.loc 1 1526 10 is_stmt 0
	ori	a5,a5,768
.LVL613:
.LBB1619:
.LBB1618:
	.loc 2 97 2
	sw	a5,264(a4)
.LVL614:
.LBE1618:
.LBE1619:
	.loc 1 1528 37 is_stmt 1
	.loc 1 1532 2
	.loc 1 1533 76
	.loc 1 1534 2
	lw	a5,12(a1)
.LBB1620:
.LBB1621:
	.loc 2 140 6 is_stmt 0
	lw	a4,836(a4)
	not	a5,a5
.LVL615:
.LBE1621:
.LBE1620:
	.loc 1 1535 2 is_stmt 1
	.loc 1 1538 3
.LBB1624:
.LBB1622:
	.loc 2 138 2
	.loc 2 140 2
	.loc 2 141 2
#APP
# 141 "/tina-d1/lichee/brandy-2.0/spl/include/arch/riscv/asm/io.h" 1
	fence ir,ir
# 0 "" 2
	.loc 2 142 2
.LVL616:
#NO_APP
.LBE1622:
.LBE1624:
	.loc 1 1539 3
	.loc 1 1540 23 is_stmt 0
	slliw	a5,a5,5
.LVL617:
	.loc 1 1546 5
	lw	a2,0(a1)
	.loc 1 1540 23
	andi	a5,a5,32
	.loc 1 1539 11
	andi	a4,a4,-49
.LVL618:
	.loc 1 1540 3 is_stmt 1
	.loc 1 1540 23 is_stmt 0
	sext.w	a5,a5
	.loc 1 1546 5
	li	a3,672
	.loc 1 1540 11
	or	a4,a4,a5
.LVL619:
	.loc 1 1541 3 is_stmt 1
	.loc 1 1542 3
	.loc 1 1543 3
	.loc 1 1544 3
	.loc 1 1546 3
	.loc 1 1546 5 is_stmt 0
	bgtu	a2,a3,.L167
	.loc 1 1544 11
	li	a3,-61440
	addi	a3,a3,-15
	and	a4,a4,a3
.LVL620:
.L168:
	.loc 1 1551 3 is_stmt 1
.LBB1625:
.LBB1626:
	.loc 2 96 2
#APP
# 96 "/tina-d1/lichee/brandy-2.0/spl/include/arch/riscv/asm/io.h" 1
	fence ow,ow
# 0 "" 2
	.loc 2 97 2
#NO_APP
	li	a3,51392512
	sw	a4,836(a3)
.LVL621:
.LBE1626:
.LBE1625:
	.loc 1 1538 3
.LBB1628:
.LBB1623:
	.loc 2 138 2
	.loc 2 140 2
	.loc 2 140 6 is_stmt 0
	lw	a4,964(a3)
.LVL622:
	.loc 2 141 2 is_stmt 1
#APP
# 141 "/tina-d1/lichee/brandy-2.0/spl/include/arch/riscv/asm/io.h" 1
	fence ir,ir
# 0 "" 2
	.loc 2 142 2
.LVL623:
#NO_APP
.LBE1623:
.LBE1628:
	.loc 1 1539 3
	.loc 1 1546 5 is_stmt 0
	lw	a3,0(s2)
	.loc 1 1539 11
	andi	a4,a4,-49
.LVL624:
	.loc 1 1540 3 is_stmt 1
	.loc 1 1540 11 is_stmt 0
	or	a5,a5,a4
.LVL625:
	.loc 1 1541 3 is_stmt 1
	.loc 1 1542 3
	.loc 1 1543 3
	.loc 1 1544 3
	.loc 1 1546 3
	.loc 1 1546 5 is_stmt 0
	li	a4,672
	bgtu	a3,a4,.L169
	.loc 1 1544 11
	li	a4,-61440
	addi	a4,a4,-15
	and	a5,a5,a4
.LVL626:
.L170:
	.loc 1 1551 3 is_stmt 1
.LBB1629:
.LBB1627:
	.loc 2 96 2
#APP
# 96 "/tina-d1/lichee/brandy-2.0/spl/include/arch/riscv/asm/io.h" 1
	fence ow,ow
# 0 "" 2
	.loc 2 97 2
#NO_APP
	li	s0,51392512
	sw	a5,964(s0)
.LVL627:
.LBE1627:
.LBE1629:
	.loc 1 1553 38
	.loc 1 1557 2
.LBB1630:
.LBB1631:
	.loc 2 138 2
	.loc 2 140 2
	.loc 2 140 6 is_stmt 0
	lw	a5,520(s0)
.LVL628:
	.loc 2 141 2 is_stmt 1
#APP
# 141 "/tina-d1/lichee/brandy-2.0/spl/include/arch/riscv/asm/io.h" 1
	fence ir,ir
# 0 "" 2
	.loc 2 142 2
.LVL629:
#NO_APP
.LBE1631:
.LBE1630:
	.loc 1 1558 2
	.loc 1 1559 2
.LBB1632:
.LBB1633:
	.loc 2 96 2
#APP
# 96 "/tina-d1/lichee/brandy-2.0/spl/include/arch/riscv/asm/io.h" 1
	fence ow,ow
# 0 "" 2
	.loc 2 97 2
#NO_APP
.LBE1633:
.LBE1632:
	.loc 1 1558 10 is_stmt 0
	ori	a5,a5,2
.LVL630:
.LBB1635:
.LBB1634:
	.loc 2 97 2
	sw	a5,520(s0)
.LVL631:
.LBE1634:
.LBE1635:
	.loc 1 1563 2 is_stmt 1
	mv	a0,s2
.LVL632:
	call	eye_delay_compensation
.LVL633:
	.loc 1 1568 2
	li	a4,1
	lw	a5,264(s0)
	beq	s1,a4,.L171
	li	a4,2
	beq	s1,a4,.L172
	.loc 1 1601 4
.LVL634:
.LBB1636:
.LBB1637:
	.loc 2 138 2
	.loc 2 140 2
	.loc 2 141 2
#APP
# 141 "/tina-d1/lichee/brandy-2.0/spl/include/arch/riscv/asm/io.h" 1
	fence ir,ir
# 0 "" 2
	.loc 2 142 2
.LVL635:
#NO_APP
.LBE1637:
.LBE1636:
	.loc 1 1602 4
	.loc 1 1603 4
.LBB1638:
.LBB1639:
	.loc 2 96 2
#APP
# 96 "/tina-d1/lichee/brandy-2.0/spl/include/arch/riscv/asm/io.h" 1
	fence ow,ow
# 0 "" 2
	.loc 2 97 2
#NO_APP
.LBE1639:
.LBE1638:
	.loc 1 1602 12 is_stmt 0
	andi	a5,a5,-65
.LVL636:
.LBB1641:
.LBB1640:
	.loc 2 97 2
	sw	a5,264(s0)
.LVL637:
.LBE1640:
.LBE1641:
	.loc 1 1604 4 is_stmt 1
.LBB1642:
.LBB1643:
	.loc 1 59 3
	li	a0,10
	call	sdelay
.LVL638:
.LBE1643:
.LBE1642:
	.loc 1 1606 4
.LBB1644:
.LBB1645:
	.loc 2 138 2
	.loc 2 140 2
	.loc 2 140 6 is_stmt 0
	lw	a5,264(s0)
.LVL639:
	.loc 2 141 2 is_stmt 1
#APP
# 141 "/tina-d1/lichee/brandy-2.0/spl/include/arch/riscv/asm/io.h" 1
	fence ir,ir
# 0 "" 2
	.loc 2 142 2
.LVL640:
#NO_APP
.LBE1645:
.LBE1644:
	.loc 1 1607 4
	.loc 1 1608 4
.LBB1646:
.LBB1647:
	.loc 2 96 2
#APP
# 96 "/tina-d1/lichee/brandy-2.0/spl/include/arch/riscv/asm/io.h" 1
	fence ow,ow
# 0 "" 2
	.loc 2 97 2
#NO_APP
.LBE1647:
.LBE1646:
	.loc 1 1607 12 is_stmt 0
	ori	a5,a5,192
.LVL641:
.LBB1649:
.LBB1648:
	.loc 2 97 2
	sw	a5,264(s0)
.LVL642:
	j	.L174
.LVL643:
.L167:
.LBE1648:
.LBE1649:
	.loc 1 1548 4 is_stmt 1
	.loc 1 1548 12 is_stmt 0
	li	a3,-61440
	addi	a3,a3,-1551
	and	a4,a4,a3
.LVL644:
	.loc 1 1549 4 is_stmt 1
	.loc 1 1549 12 is_stmt 0
	ori	a4,a4,1024
.LVL645:
	j	.L168
.LVL646:
.L169:
	.loc 1 1548 4 is_stmt 1
	.loc 1 1548 12 is_stmt 0
	li	a4,-61440
	addi	a4,a4,-1551
	and	a5,a5,a4
.LVL647:
	.loc 1 1549 4 is_stmt 1
	.loc 1 1549 12 is_stmt 0
	ori	a5,a5,1024
.LVL648:
	j	.L170
.LVL649:
.L171:
	.loc 1 1571 4 is_stmt 1
.LBB1650:
.LBB1651:
	.loc 2 138 2
	.loc 2 140 2
	.loc 2 141 2
#APP
# 141 "/tina-d1/lichee/brandy-2.0/spl/include/arch/riscv/asm/io.h" 1
	fence ir,ir
# 0 "" 2
	.loc 2 142 2
.LVL650:
#NO_APP
.LBE1651:
.LBE1650:
	.loc 1 1572 4
	.loc 1 1573 4
.LBB1652:
.LBB1653:
	.loc 2 96 2
#APP
# 96 "/tina-d1/lichee/brandy-2.0/spl/include/arch/riscv/asm/io.h" 1
	fence ow,ow
# 0 "" 2
	.loc 2 97 2
#NO_APP
.LBE1653:
.LBE1652:
	.loc 1 1572 12 is_stmt 0
	andi	a5,a5,-193
.LVL651:
.LBB1655:
.LBB1654:
	.loc 2 97 2
	sw	a5,264(s0)
.LVL652:
.LBE1654:
.LBE1655:
	.loc 1 1575 4 is_stmt 1
.LBB1656:
.LBB1657:
	.loc 2 138 2
	.loc 2 140 2
	.loc 2 140 6 is_stmt 0
	lw	a5,188(s0)
.LVL653:
	.loc 2 141 2 is_stmt 1
#APP
# 141 "/tina-d1/lichee/brandy-2.0/spl/include/arch/riscv/asm/io.h" 1
	fence ir,ir
# 0 "" 2
	.loc 2 142 2
.LVL654:
#NO_APP
.LBE1657:
.LBE1656:
	.loc 1 1576 4
	.loc 1 1577 4
.LBB1658:
.LBB1659:
	.loc 2 96 2
#APP
# 96 "/tina-d1/lichee/brandy-2.0/spl/include/arch/riscv/asm/io.h" 1
	fence ow,ow
# 0 "" 2
	.loc 2 97 2
#NO_APP
.LBE1659:
.LBE1658:
	.loc 1 1576 12 is_stmt 0
	andi	a5,a5,-264
.LVL655:
.LBB1661:
.LBB1660:
	.loc 2 97 2
	sw	a5,188(s0)
.LVL656:
.L174:
.LBE1660:
.LBE1661:
	.loc 1 1615 2 is_stmt 1
	.loc 1 1615 28 is_stmt 0
	lw	a5,4(s2)
	.loc 1 1615 4
	li	a3,1
	addiw	a5,a5,-6
	bgtu	a5,a3,.L175
	.loc 1 1617 3 is_stmt 1
	li	a4,51392512
	lw	a5,284(a4)
	.loc 1 1617 5 is_stmt 0
	bne	s1,a3,.L176
	.loc 1 1620 4 is_stmt 1
.LVL657:
.LBB1662:
.LBB1663:
	.loc 2 138 2
	.loc 2 140 2
	.loc 2 141 2
#APP
# 141 "/tina-d1/lichee/brandy-2.0/spl/include/arch/riscv/asm/io.h" 1
	fence ir,ir
# 0 "" 2
	.loc 2 142 2
.LVL658:
#NO_APP
.LBE1663:
.LBE1662:
	.loc 1 1621 4
	.loc 1 1622 4
	.loc 1 1623 4
	.loc 1 1624 4
.LBB1664:
.LBB1665:
	.loc 2 96 2
#APP
# 96 "/tina-d1/lichee/brandy-2.0/spl/include/arch/riscv/asm/io.h" 1
	fence ow,ow
# 0 "" 2
	.loc 2 97 2
#NO_APP
.LBE1665:
.LBE1664:
	.loc 1 1623 12 is_stmt 0
	li	a3,-134217728
	addi	a3,a3,-193
	and	a5,a5,a3
.LVL659:
	li	a3,-2147483648
.LVL660:
.L214:
	.loc 1 1633 12
	or	a5,a5,a3
.LBB1666:
.LBB1667:
	.loc 2 97 2
	sw	a5,284(a4)
.L175:
.LBE1667:
.LBE1666:
	.loc 1 1641 2 is_stmt 1
	li	a4,51392512
	lw	a5,192(a4)
	li	a3,-268435456
	and	a5,a5,a3
	.loc 1 1641 5 is_stmt 0
	lw	a3,20(s2)
	.loc 1 1641 4
	slli	a2,a3,51
	bgez	a2,.L177
	.loc 1 1643 3 is_stmt 1
.LVL661:
.LBB1669:
.LBB1670:
	.loc 2 138 2
	.loc 2 140 2
	.loc 2 141 2
#APP
# 141 "/tina-d1/lichee/brandy-2.0/spl/include/arch/riscv/asm/io.h" 1
	fence ir,ir
# 0 "" 2
	.loc 2 142 2
.LVL662:
#NO_APP
.LBE1670:
.LBE1669:
	.loc 1 1644 3
	.loc 1 1645 3
	.loc 1 1646 3
.LBB1671:
.LBB1672:
	.loc 2 96 2
#APP
# 96 "/tina-d1/lichee/brandy-2.0/spl/include/arch/riscv/asm/io.h" 1
	fence ow,ow
# 0 "" 2
	.loc 2 97 2
#NO_APP
.LBE1672:
.LBE1671:
	.loc 1 1645 11 is_stmt 0
	li	a3,50331648
	addi	a3,a3,1
.LVL663:
.L215:
	.loc 1 1652 11
	or	a5,a5,a3
.LBB1673:
.LBB1674:
	.loc 2 97 2
	sw	a5,192(a4)
.LBE1674:
.LBE1673:
	.loc 1 1655 2 is_stmt 1
.LVL664:
.LBB1676:
.LBB1677:
	.loc 2 138 2
	.loc 2 140 2
	.loc 2 140 6 is_stmt 0
	li	a5,117440512
	lw	a5,1492(a5)
.LVL665:
	.loc 2 141 2 is_stmt 1
#APP
# 141 "/tina-d1/lichee/brandy-2.0/spl/include/arch/riscv/asm/io.h" 1
	fence ir,ir
# 0 "" 2
	.loc 2 142 2
.LVL666:
#NO_APP
.LBE1677:
.LBE1676:
	.loc 1 1655 4 is_stmt 0
	slli	a4,a5,47
	bgez	a4,.L179
	.loc 1 1657 3 is_stmt 1
.LVL667:
.LBB1678:
.LBB1679:
	.loc 2 138 2
	.loc 2 140 2
	.loc 2 140 6 is_stmt 0
	li	a4,117506048
	lw	a5,592(a4)
.LVL668:
	.loc 2 141 2 is_stmt 1
#APP
# 141 "/tina-d1/lichee/brandy-2.0/spl/include/arch/riscv/asm/io.h" 1
	fence ir,ir
# 0 "" 2
	.loc 2 142 2
.LVL669:
#NO_APP
.LBE1679:
.LBE1678:
	.loc 1 1658 3
	.loc 1 1659 3
.LBB1680:
.LBB1681:
	.loc 2 96 2
#APP
# 96 "/tina-d1/lichee/brandy-2.0/spl/include/arch/riscv/asm/io.h" 1
	fence ow,ow
# 0 "" 2
	.loc 2 97 2
#NO_APP
.LBE1681:
.LBE1680:
	.loc 1 1658 11 is_stmt 0
	andi	a5,a5,-3
.LVL670:
.LBB1683:
.LBB1682:
	.loc 2 97 2
	sw	a5,592(a4)
.LVL671:
.LBE1682:
.LBE1683:
	.loc 1 1660 3 is_stmt 1
.LBB1684:
.LBB1685:
	.loc 1 59 3
	li	a0,10
	call	sdelay
.LVL672:
.L179:
.LBE1685:
.LBE1684:
	.loc 1 1665 2
.LBB1686:
.LBB1687:
	.loc 2 138 2
	.loc 2 140 2
	.loc 2 140 6 is_stmt 0
	li	a4,51392512
	lw	a5,320(a4)
.LVL673:
	.loc 2 141 2 is_stmt 1
#APP
# 141 "/tina-d1/lichee/brandy-2.0/spl/include/arch/riscv/asm/io.h" 1
	fence ir,ir
# 0 "" 2
	.loc 2 142 2
.LVL674:
#NO_APP
.LBE1687:
.LBE1686:
	.loc 1 1666 2
	.loc 1 1666 10 is_stmt 0
	li	a3,-67108864
	and	a3,a5,a3
.LVL675:
	.loc 1 1667 2 is_stmt 1
	.loc 1 1667 30 is_stmt 0
	lw	a5,8(s2)
	extu	a5,a5,0+24-1,0
	.loc 1 1667 10
	or	a5,a5,a3
.LVL676:
	.loc 1 1668 2 is_stmt 1
	.loc 1 1669 2
.LBB1688:
.LBB1689:
	.loc 2 96 2
#APP
# 96 "/tina-d1/lichee/brandy-2.0/spl/include/arch/riscv/asm/io.h" 1
	fence ow,ow
# 0 "" 2
	.loc 2 97 2
#NO_APP
.LBE1689:
.LBE1688:
	.loc 1 1668 10 is_stmt 0
	li	a3,33554432
	or	a5,a5,a3
.LVL677:
.LBB1691:
.LBB1690:
	.loc 2 97 2
	sw	a5,320(a4)
.LVL678:
.LBE1690:
.LBE1691:
	.loc 1 1671 2 is_stmt 1
	.loc 1 1671 4 is_stmt 0
	li	a5,1
	bne	s1,a5,.L180
	.loc 1 1673 3 is_stmt 1
.LVL679:
	.loc 1 1674 3
.LBB1692:
.LBB1693:
	.loc 2 96 2
#APP
# 96 "/tina-d1/lichee/brandy-2.0/spl/include/arch/riscv/asm/io.h" 1
	fence ow,ow
# 0 "" 2
	.loc 2 97 2
#NO_APP
	li	a5,82
	sw	a5,0(a4)
.LVL680:
.LBE1693:
.LBE1692:
	.loc 1 1675 3
	.loc 1 1676 3
.LBB1694:
.LBB1695:
	.loc 2 96 2
#APP
# 96 "/tina-d1/lichee/brandy-2.0/spl/include/arch/riscv/asm/io.h" 1
	fence ow,ow
# 0 "" 2
	.loc 2 97 2
#NO_APP
	li	a5,83
	sw	a5,0(a4)
.L181:
.LBE1695:
.LBE1694:
	.loc 1 1678 43 discriminator 1
.LVL681:
.LBB1696:
.LBB1697:
	.loc 2 138 2 discriminator 1
	.loc 2 140 2 discriminator 1
	.loc 2 140 6 is_stmt 0 discriminator 1
	lw	a5,16(a4)
.LVL682:
	.loc 2 141 2 is_stmt 1 discriminator 1
#APP
# 141 "/tina-d1/lichee/brandy-2.0/spl/include/arch/riscv/asm/io.h" 1
	fence ir,ir
# 0 "" 2
	.loc 2 142 2 discriminator 1
.LVL683:
#NO_APP
.LBE1697:
.LBE1696:
	.loc 1 1678 8 is_stmt 0 discriminator 1
	andi	a5,a5,1
	beqz	a5,.L181
	.loc 1 1679 3 is_stmt 1
.LVL684:
.LBB1698:
.LBB1699:
	.loc 1 59 3
	li	a0,10
	call	sdelay
.LVL685:
.LBE1699:
.LBE1698:
	.loc 1 1680 3
	.loc 1 1681 3
	.loc 1 1681 5 is_stmt 0
	lw	a3,4(s2)
	li	a4,3
	.loc 1 1680 11
	li	a5,1312
	.loc 1 1681 5
	bne	a3,a4,.L182
	.loc 1 1682 12
	li	a5,1440
.LVL686:
.L182:
	.loc 1 1697 2 is_stmt 1
.LBB1700:
.LBB1701:
	.loc 2 96 2
#APP
# 96 "/tina-d1/lichee/brandy-2.0/spl/include/arch/riscv/asm/io.h" 1
	fence ow,ow
# 0 "" 2
	.loc 2 97 2
#NO_APP
	li	a4,51392512
	sw	a5,0(a4)
.LVL687:
.LBE1701:
.LBE1700:
	.loc 1 1698 2
	.loc 1 1699 2
.LBB1702:
.LBB1703:
	.loc 2 96 2
#APP
# 96 "/tina-d1/lichee/brandy-2.0/spl/include/arch/riscv/asm/io.h" 1
	fence ow,ow
# 0 "" 2
	.loc 2 97 2
#NO_APP
.LBE1703:
.LBE1702:
	.loc 1 1698 10 is_stmt 0
	ori	a5,a5,1
.LVL688:
.LBB1705:
.LBB1704:
	.loc 2 97 2
	sw	a5,0(a4)
.LVL689:
.LBE1704:
.LBE1705:
	.loc 1 1700 54 is_stmt 1
	.loc 1 1701 2
.LBB1706:
.LBB1707:
	.loc 1 59 3
	li	a0,10
	call	sdelay
.LVL690:
.LBE1707:
.LBE1706:
.LBB1708:
.LBB1709:
	.loc 2 140 6 is_stmt 0
	li	s2,51392512
.LVL691:
.L183:
.LBE1709:
.LBE1708:
	.loc 1 1702 42 is_stmt 1 discriminator 1
.LBB1711:
.LBB1710:
	.loc 2 138 2 discriminator 1
	.loc 2 140 2 discriminator 1
	.loc 2 140 6 is_stmt 0 discriminator 1
	lw	s0,16(s2)
.LVL692:
	.loc 2 141 2 is_stmt 1 discriminator 1
#APP
# 141 "/tina-d1/lichee/brandy-2.0/spl/include/arch/riscv/asm/io.h" 1
	fence ir,ir
# 0 "" 2
	.loc 2 142 2 discriminator 1
.LVL693:
#NO_APP
.LBE1710:
.LBE1711:
	.loc 1 1702 28 is_stmt 0 discriminator 1
	andi	s0,s0,1
	.loc 1 1702 7 discriminator 1
	beqz	s0,.L183
	.loc 1 1705 2 is_stmt 1
.LVL694:
.LBB1712:
.LBB1713:
	.loc 2 138 2
	.loc 2 140 2
	.loc 2 140 6 is_stmt 0
	li	a5,117440512
	lw	a5,1492(a5)
.LVL695:
	.loc 2 141 2 is_stmt 1
#APP
# 141 "/tina-d1/lichee/brandy-2.0/spl/include/arch/riscv/asm/io.h" 1
	fence ir,ir
# 0 "" 2
	.loc 2 142 2
.LVL696:
#NO_APP
.LBE1713:
.LBE1712:
	.loc 1 1705 4 is_stmt 0
	slli	a4,a5,47
	bltz	a4,.L184
.L189:
	.loc 1 1758 2 is_stmt 1
.LVL697:
.LBB1714:
.LBB1715:
	.loc 2 138 2
	.loc 2 140 2
	.loc 2 140 6 is_stmt 0
	li	a5,51392512
	lw	a5,16(a5)
.LVL698:
	.loc 2 141 2 is_stmt 1
#APP
# 141 "/tina-d1/lichee/brandy-2.0/spl/include/arch/riscv/asm/io.h" 1
	fence ir,ir
# 0 "" 2
	.loc 2 142 2
.LVL699:
#NO_APP
.LBE1715:
.LBE1714:
	.loc 1 1759 2
	.loc 1 1759 4 is_stmt 0
	extu	a4,a5,20+8-1,20
	bnez	a4,.L185
.L186:
.LBB1716:
.LBB1717:
	.loc 2 140 6 discriminator 1
	li	s2,51392512
.LVL700:
.L192:
.LBE1717:
.LBE1716:
	.loc 1 1774 40 is_stmt 1 discriminator 1
.LBB1719:
.LBB1718:
	.loc 2 138 2 discriminator 1
	.loc 2 140 2 discriminator 1
	.loc 2 140 6 is_stmt 0 discriminator 1
	lw	a5,24(s2)
.LVL701:
	.loc 2 141 2 is_stmt 1 discriminator 1
#APP
# 141 "/tina-d1/lichee/brandy-2.0/spl/include/arch/riscv/asm/io.h" 1
	fence ir,ir
# 0 "" 2
	.loc 2 142 2 discriminator 1
.LVL702:
#NO_APP
.LBE1718:
.LBE1719:
	.loc 1 1774 7 is_stmt 0 discriminator 1
	andi	a5,a5,1
	beqz	a5,.L192
	.loc 1 1776 2 is_stmt 1
.LVL703:
.LBB1720:
.LBB1721:
	.loc 2 138 2
	.loc 2 140 2
	.loc 2 140 6 is_stmt 0
	lw	a4,140(s2)
.LVL704:
	.loc 2 141 2 is_stmt 1
#APP
# 141 "/tina-d1/lichee/brandy-2.0/spl/include/arch/riscv/asm/io.h" 1
	fence ir,ir
# 0 "" 2
	.loc 2 142 2
.LVL705:
#NO_APP
.LBE1721:
.LBE1720:
	.loc 1 1777 2
	.loc 1 1778 2
.LBB1722:
.LBB1723:
	.loc 2 96 2
#APP
# 96 "/tina-d1/lichee/brandy-2.0/spl/include/arch/riscv/asm/io.h" 1
	fence ow,ow
# 0 "" 2
	.loc 2 97 2
#NO_APP
.LBE1723:
.LBE1722:
	.loc 1 1777 9 is_stmt 0
	li	s3,-2147483648
	or	a4,a4,s3
.LVL706:
.LBB1725:
.LBB1724:
	.loc 2 97 2
	sw	a4,140(s2)
.LVL707:
.LBE1724:
.LBE1725:
	.loc 1 1779 2 is_stmt 1
.LBB1726:
.LBB1727:
	.loc 1 59 3
	li	a0,10
	call	sdelay
.LVL708:
.LBE1727:
.LBE1726:
	.loc 1 1781 2
.LBB1728:
.LBB1729:
	.loc 2 138 2
	.loc 2 140 2
	.loc 2 140 6 is_stmt 0
	lw	a4,140(s2)
.LVL709:
	.loc 2 141 2 is_stmt 1
#APP
# 141 "/tina-d1/lichee/brandy-2.0/spl/include/arch/riscv/asm/io.h" 1
	fence ir,ir
# 0 "" 2
	.loc 2 142 2
.LVL710:
#NO_APP
.LBE1729:
.LBE1728:
	.loc 1 1782 2
	.loc 1 1783 2
.LBB1730:
.LBB1731:
	.loc 2 96 2
#APP
# 96 "/tina-d1/lichee/brandy-2.0/spl/include/arch/riscv/asm/io.h" 1
	fence ow,ow
# 0 "" 2
	.loc 2 97 2
#NO_APP
.LBE1731:
.LBE1730:
	.loc 1 1782 9 is_stmt 0
	extu	a4,a4,0+31-1,0
.LVL711:
.LBB1733:
.LBB1732:
	.loc 2 97 2
	sw	a4,140(s2)
.LVL712:
.LBE1732:
.LBE1733:
	.loc 1 1784 2 is_stmt 1
.LBB1734:
.LBB1735:
	.loc 1 59 3
	li	a0,10
	call	sdelay
.LVL713:
.LBE1735:
.LBE1734:
	.loc 1 1787 2
.LBB1736:
.LBB1737:
	.loc 2 138 2
	.loc 2 140 2
	.loc 2 140 6 is_stmt 0
	li	a4,51388416
	lw	a5,20(a4)
.LVL714:
	.loc 2 141 2 is_stmt 1
#APP
# 141 "/tina-d1/lichee/brandy-2.0/spl/include/arch/riscv/asm/io.h" 1
	fence ir,ir
# 0 "" 2
	.loc 2 142 2
.LVL715:
#NO_APP
.LBE1737:
.LBE1736:
	.loc 1 1788 2
	.loc 1 1789 2
.LBB1738:
.LBB1739:
	.loc 2 96 2
#APP
# 96 "/tina-d1/lichee/brandy-2.0/spl/include/arch/riscv/asm/io.h" 1
	fence ow,ow
# 0 "" 2
	.loc 2 97 2
#NO_APP
.LBE1739:
.LBE1738:
	.loc 1 1788 10 is_stmt 0
	or	a5,a5,s3
.LVL716:
.LBB1741:
.LBB1740:
	.loc 2 97 2
	sw	a5,20(a4)
.LVL717:
.LBE1740:
.LBE1741:
	.loc 1 1790 2 is_stmt 1
.LBB1742:
.LBB1743:
	.loc 1 59 3
	li	a0,10
	call	sdelay
.LVL718:
.LBE1743:
.LBE1742:
	.loc 1 1792 2
.LBB1744:
.LBB1745:
	.loc 2 138 2
	.loc 2 140 2
	.loc 2 140 6 is_stmt 0
	lw	a5,268(s2)
.LVL719:
	.loc 2 141 2 is_stmt 1
#APP
# 141 "/tina-d1/lichee/brandy-2.0/spl/include/arch/riscv/asm/io.h" 1
	fence ir,ir
# 0 "" 2
	.loc 2 142 2
.LVL720:
#NO_APP
.LBE1745:
.LBE1744:
	.loc 1 1793 2
	.loc 1 1794 2
.LBB1746:
.LBB1747:
	.loc 2 96 2
#APP
# 96 "/tina-d1/lichee/brandy-2.0/spl/include/arch/riscv/asm/io.h" 1
	fence ow,ow
# 0 "" 2
	.loc 2 97 2
#NO_APP
.LBE1747:
.LBE1746:
	.loc 1 1793 10 is_stmt 0
	li	a4,-100663296
	addi	a4,a4,-1
	and	a5,a5,a4
.LVL721:
.LBB1749:
.LBB1748:
	.loc 2 97 2
	sw	a5,268(s2)
.LVL722:
.LBE1748:
.LBE1749:
	.loc 1 1799 2 is_stmt 1
	.loc 1 1799 4 is_stmt 0
	li	a5,1
	bne	s1,a5,.L191
	.loc 1 1801 3 is_stmt 1
.LVL723:
.LBB1750:
.LBB1751:
	.loc 2 138 2
	.loc 2 140 2
	.loc 2 140 6 is_stmt 0
	lw	a5,284(s2)
.LVL724:
	.loc 2 141 2 is_stmt 1
#APP
# 141 "/tina-d1/lichee/brandy-2.0/spl/include/arch/riscv/asm/io.h" 1
	fence ir,ir
# 0 "" 2
	.loc 2 142 2
.LVL725:
#NO_APP
.LBE1751:
.LBE1750:
	.loc 1 1802 3
	.loc 1 1802 11 is_stmt 0
	andi	a5,a5,-193
.LVL726:
	.loc 1 1803 3 is_stmt 1
	.loc 1 1804 3
.LBB1752:
.LBB1753:
	.loc 2 96 2
#APP
# 96 "/tina-d1/lichee/brandy-2.0/spl/include/arch/riscv/asm/io.h" 1
	fence ow,ow
# 0 "" 2
	.loc 2 97 2
#NO_APP
.LBE1753:
.LBE1752:
	.loc 1 1803 11 is_stmt 0
	ori	a5,a5,64
.LVL727:
.LBB1755:
.LBB1754:
	.loc 2 97 2
	sw	a5,284(s2)
.LVL728:
	j	.L191
.LVL729:
.L172:
.LBE1754:
.LBE1755:
	.loc 1 1581 4 is_stmt 1
.LBB1756:
.LBB1757:
	.loc 2 138 2
	.loc 2 140 2
	.loc 2 141 2
#APP
# 141 "/tina-d1/lichee/brandy-2.0/spl/include/arch/riscv/asm/io.h" 1
	fence ir,ir
# 0 "" 2
	.loc 2 142 2
.LVL730:
#NO_APP
.LBE1757:
.LBE1756:
	.loc 1 1582 4
	.loc 1 1582 12 is_stmt 0
	andi	a5,a5,-193
.LVL731:
	.loc 1 1583 4 is_stmt 1
	.loc 1 1584 4
.LBB1758:
.LBB1759:
	.loc 2 96 2
#APP
# 96 "/tina-d1/lichee/brandy-2.0/spl/include/arch/riscv/asm/io.h" 1
	fence ow,ow
# 0 "" 2
	.loc 2 97 2
#NO_APP
.LBE1759:
.LBE1758:
	.loc 1 1583 12 is_stmt 0
	ori	a5,a5,128
.LVL732:
.LBB1761:
.LBB1760:
	.loc 2 97 2
	sw	a5,264(s0)
.LVL733:
.LBE1760:
.LBE1761:
	.loc 1 1586 4 is_stmt 1
.LBB1762:
.LBB1763:
	.loc 2 138 2
	.loc 2 140 2
	.loc 2 140 6 is_stmt 0
	lw	a4,96(s0)
.LVL734:
	.loc 2 141 2 is_stmt 1
#APP
# 141 "/tina-d1/lichee/brandy-2.0/spl/include/arch/riscv/asm/io.h" 1
	fence ir,ir
# 0 "" 2
	.loc 2 142 2
.LVL735:
#NO_APP
.LBE1763:
.LBE1762:
	.loc 1 1587 4
.LBB1764:
.LBB1765:
	.loc 2 138 2
	.loc 2 140 2
	.loc 2 140 6 is_stmt 0
	lw	a5,188(s0)
.LVL736:
	.loc 2 141 2 is_stmt 1
#APP
# 141 "/tina-d1/lichee/brandy-2.0/spl/include/arch/riscv/asm/io.h" 1
	fence ir,ir
# 0 "" 2
	.loc 2 142 2
.LVL737:
#NO_APP
.LBE1765:
.LBE1764:
	.loc 1 1588 4
	.loc 1 1589 4
	.loc 1 1586 45 is_stmt 0
	extu	a4,a4,16+5-1,16
.LVL738:
	.loc 1 1586 12
	addiw	a4,a4,-2
	.loc 1 1588 12
	andi	a5,a5,-264
.LVL739:
	.loc 1 1589 12
	or	a5,a5,a4
	sext.w	a5,a5
.LVL740:
	.loc 1 1590 4 is_stmt 1
.LBB1766:
.LBB1767:
	.loc 2 96 2
#APP
# 96 "/tina-d1/lichee/brandy-2.0/spl/include/arch/riscv/asm/io.h" 1
	fence ow,ow
# 0 "" 2
	.loc 2 97 2
#NO_APP
.LBE1767:
.LBE1766:
	.loc 1 1589 12 is_stmt 0
	ori	a5,a5,256
.LVL741:
.LBB1769:
.LBB1768:
	.loc 2 97 2
	sw	a5,188(s0)
.LVL742:
.LBE1768:
.LBE1769:
	.loc 1 1592 4 is_stmt 1
.LBB1770:
.LBB1771:
	.loc 2 138 2
	.loc 2 140 2
	.loc 2 140 6 is_stmt 0
	lw	a5,284(s0)
.LVL743:
	.loc 2 141 2 is_stmt 1
#APP
# 141 "/tina-d1/lichee/brandy-2.0/spl/include/arch/riscv/asm/io.h" 1
	fence ir,ir
# 0 "" 2
	.loc 2 142 2
.LVL744:
#NO_APP
.LBE1771:
.LBE1770:
	.loc 1 1593 4
	.loc 1 1594 4
	.loc 1 1595 4
.LBB1772:
.LBB1773:
	.loc 2 96 2
#APP
# 96 "/tina-d1/lichee/brandy-2.0/spl/include/arch/riscv/asm/io.h" 1
	fence ow,ow
# 0 "" 2
	.loc 2 97 2
#NO_APP
.LBE1773:
.LBE1772:
	.loc 1 1594 12 is_stmt 0
	li	a4,134217728
	extu	a5,a5,0+31-1,0
.LVL745:
	or	a5,a5,a4
.LBB1775:
.LBB1774:
	.loc 2 97 2
	sw	a5,284(s0)
.LVL746:
	j	.L174
.LVL747:
.L176:
.LBE1774:
.LBE1775:
	.loc 1 1629 4 is_stmt 1
.LBB1776:
.LBB1777:
	.loc 2 138 2
	.loc 2 140 2
	.loc 2 141 2
#APP
# 141 "/tina-d1/lichee/brandy-2.0/spl/include/arch/riscv/asm/io.h" 1
	fence ir,ir
# 0 "" 2
	.loc 2 142 2
.LVL748:
#NO_APP
.LBE1777:
.LBE1776:
	.loc 1 1630 4
	.loc 1 1631 4
	.loc 1 1631 12 is_stmt 0
	li	a3,-1996488704
	addi	a3,a3,-1
	and	a5,a5,a3
	sext.w	a5,a5
.LVL749:
	.loc 1 1632 4 is_stmt 1
	.loc 1 1633 4
	.loc 1 1634 4
.LBB1778:
.LBB1668:
	.loc 2 96 2
#APP
# 96 "/tina-d1/lichee/brandy-2.0/spl/include/arch/riscv/asm/io.h" 1
	fence ow,ow
# 0 "" 2
	.loc 2 97 2
#NO_APP
.LBE1668:
.LBE1778:
	.loc 1 1633 12 is_stmt 0
	li	a3,570425344
	j	.L214
.LVL750:
.L177:
	.loc 1 1650 3 is_stmt 1
.LBB1779:
.LBB1780:
	.loc 2 138 2
	.loc 2 140 2
	.loc 2 141 2
#APP
# 141 "/tina-d1/lichee/brandy-2.0/spl/include/arch/riscv/asm/io.h" 1
	fence ir,ir
# 0 "" 2
	.loc 2 142 2
.LVL751:
#NO_APP
.LBE1780:
.LBE1779:
	.loc 1 1651 3
	.loc 1 1652 3
	.loc 1 1653 3
.LBB1781:
.LBB1675:
	.loc 2 96 2
#APP
# 96 "/tina-d1/lichee/brandy-2.0/spl/include/arch/riscv/asm/io.h" 1
	fence ow,ow
# 0 "" 2
	.loc 2 97 2
#NO_APP
.LBE1675:
.LBE1781:
	.loc 1 1652 11 is_stmt 0
	li	a3,16789504
	addi	a3,a3,135
	j	.L215
.LVL752:
.L180:
	.loc 1 1686 2 is_stmt 1
.LBB1782:
.LBB1783:
	.loc 2 138 2
	.loc 2 140 2
	.loc 2 140 6 is_stmt 0
	li	a5,117440512
	lw	a4,1492(a5)
.LVL753:
	.loc 2 141 2 is_stmt 1
#APP
# 141 "/tina-d1/lichee/brandy-2.0/spl/include/arch/riscv/asm/io.h" 1
	fence ir,ir
# 0 "" 2
	.loc 2 142 2
.LVL754:
#NO_APP
.LBE1783:
.LBE1782:
	.loc 1 1686 4 is_stmt 0
	slli	a3,a4,47
	.loc 1 1688 12
	li	a5,98
	.loc 1 1686 4
	bltz	a3,.L182
	.loc 1 1692 4 is_stmt 1
.LVL755:
	.loc 1 1693 4
	.loc 1 1693 6 is_stmt 0
	lw	a3,4(s2)
	li	a4,3
	.loc 1 1692 12
	li	a5,370
	.loc 1 1693 6
	bne	a3,a4,.L182
	.loc 1 1694 13
	li	a5,498
	j	.L182
.LVL756:
.L184:
	.loc 1 1707 3 is_stmt 1
.LBB1784:
.LBB1785:
	.loc 2 138 2
	.loc 2 140 2
	.loc 2 140 6 is_stmt 0
	lw	a5,268(s2)
.LVL757:
	.loc 2 141 2 is_stmt 1
#APP
# 141 "/tina-d1/lichee/brandy-2.0/spl/include/arch/riscv/asm/io.h" 1
	fence ir,ir
# 0 "" 2
	.loc 2 142 2
.LVL758:
#NO_APP
.LBE1785:
.LBE1784:
	.loc 1 1708 3
	.loc 1 1708 11 is_stmt 0
	li	a4,-100663296
	addi	a4,a4,-1
	and	a5,a5,a4
.LVL759:
	.loc 1 1709 3 is_stmt 1
	.loc 1 1710 3
.LBB1786:
.LBB1787:
	.loc 2 96 2
#APP
# 96 "/tina-d1/lichee/brandy-2.0/spl/include/arch/riscv/asm/io.h" 1
	fence ow,ow
# 0 "" 2
	.loc 2 97 2
#NO_APP
.LBE1787:
.LBE1786:
	.loc 1 1709 11 is_stmt 0
	li	a4,67108864
	or	a5,a5,a4
.LVL760:
.LBB1789:
.LBB1788:
	.loc 2 97 2
	sw	a5,268(s2)
.LVL761:
.LBE1788:
.LBE1789:
	.loc 1 1711 3 is_stmt 1
.LBB1790:
.LBB1791:
	.loc 1 59 3
	li	a0,10
	call	sdelay
.LVL762:
.LBE1791:
.LBE1790:
	.loc 1 1713 3
.LBB1792:
.LBB1793:
	.loc 2 138 2
	.loc 2 140 2
	.loc 2 140 6 is_stmt 0
	lw	a5,4(s2)
.LVL763:
	.loc 2 141 2 is_stmt 1
#APP
# 141 "/tina-d1/lichee/brandy-2.0/spl/include/arch/riscv/asm/io.h" 1
	fence ir,ir
# 0 "" 2
	.loc 2 142 2
.LVL764:
#NO_APP
.LBE1793:
.LBE1792:
	.loc 1 1714 3
	.loc 1 1716 3
.LBB1794:
.LBB1795:
	.loc 2 96 2
#APP
# 96 "/tina-d1/lichee/brandy-2.0/spl/include/arch/riscv/asm/io.h" 1
	fence ow,ow
# 0 "" 2
	.loc 2 97 2
#NO_APP
.LBE1795:
.LBE1794:
	.loc 1 1714 11 is_stmt 0
	ori	a5,a5,1
.LVL765:
.LBB1797:
.LBB1796:
	.loc 2 97 2
	sw	a5,4(s2)
.LVL766:
.LBE1796:
.LBE1797:
	.loc 1 1717 8
	li	a4,3
.LBB1798:
.LBB1799:
	.loc 2 140 6
	li	s2,51392512
.L187:
.LBE1799:
.LBE1798:
	.loc 1 1717 45 is_stmt 1 discriminator 1
.LVL767:
.LBB1801:
.LBB1800:
	.loc 2 138 2 discriminator 1
	.loc 2 140 2 discriminator 1
	.loc 2 140 6 is_stmt 0 discriminator 1
	lw	a5,24(s2)
.LVL768:
	.loc 2 141 2 is_stmt 1 discriminator 1
#APP
# 141 "/tina-d1/lichee/brandy-2.0/spl/include/arch/riscv/asm/io.h" 1
	fence ir,ir
# 0 "" 2
	.loc 2 142 2 discriminator 1
.LVL769:
#NO_APP
.LBE1800:
.LBE1801:
	.loc 1 1717 8 is_stmt 0 discriminator 1
	andi	a5,a5,7
	bne	a5,a4,.L187
	.loc 1 1725 3 is_stmt 1
.LVL770:
.LBB1802:
.LBB1803:
	.loc 2 138 2
	.loc 2 140 2
	.loc 2 140 6 is_stmt 0
	li	a4,117506048
	lw	a5,592(a4)
.LVL771:
	.loc 2 141 2 is_stmt 1
#APP
# 141 "/tina-d1/lichee/brandy-2.0/spl/include/arch/riscv/asm/io.h" 1
	fence ir,ir
# 0 "" 2
	.loc 2 142 2
.LVL772:
#NO_APP
.LBE1803:
.LBE1802:
	.loc 1 1726 3
	.loc 1 1727 3
.LBB1804:
.LBB1805:
	.loc 2 96 2
#APP
# 96 "/tina-d1/lichee/brandy-2.0/spl/include/arch/riscv/asm/io.h" 1
	fence ow,ow
# 0 "" 2
	.loc 2 97 2
#NO_APP
.LBE1805:
.LBE1804:
	.loc 1 1726 11 is_stmt 0
	andi	a5,a5,-2
.LVL773:
.LBB1807:
.LBB1806:
	.loc 2 97 2
	sw	a5,592(a4)
.LVL774:
.LBE1806:
.LBE1807:
	.loc 1 1728 3 is_stmt 1
.LBB1808:
.LBB1809:
	.loc 1 59 3
	li	a0,10
	call	sdelay
.LVL775:
.LBE1809:
.LBE1808:
	.loc 1 1731 3
.LBB1810:
.LBB1811:
	.loc 2 138 2
	.loc 2 140 2
	.loc 2 140 6 is_stmt 0
	lw	a5,4(s2)
.LVL776:
	.loc 2 141 2 is_stmt 1
#APP
# 141 "/tina-d1/lichee/brandy-2.0/spl/include/arch/riscv/asm/io.h" 1
	fence ir,ir
# 0 "" 2
	.loc 2 142 2
.LVL777:
#NO_APP
.LBE1811:
.LBE1810:
	.loc 1 1732 3
	.loc 1 1733 3
.LBB1812:
.LBB1813:
	.loc 2 96 2
#APP
# 96 "/tina-d1/lichee/brandy-2.0/spl/include/arch/riscv/asm/io.h" 1
	fence ow,ow
# 0 "" 2
	.loc 2 97 2
#NO_APP
.LBE1813:
.LBE1812:
	.loc 1 1732 11 is_stmt 0
	andi	a5,a5,-2
.LVL778:
.LBB1815:
.LBB1814:
	.loc 2 97 2
	sw	a5,4(s2)
.LVL779:
.LBE1814:
.LBE1815:
	.loc 1 1734 8
	li	s3,1
.LBB1816:
.LBB1817:
	.loc 2 140 6
	li	s2,51392512
.L188:
.LBE1817:
.LBE1816:
	.loc 1 1734 45 is_stmt 1 discriminator 1
.LVL780:
.LBB1819:
.LBB1818:
	.loc 2 138 2 discriminator 1
	.loc 2 140 2 discriminator 1
	.loc 2 140 6 is_stmt 0 discriminator 1
	lw	a5,24(s2)
.LVL781:
	.loc 2 141 2 is_stmt 1 discriminator 1
#APP
# 141 "/tina-d1/lichee/brandy-2.0/spl/include/arch/riscv/asm/io.h" 1
	fence ir,ir
# 0 "" 2
	.loc 2 142 2 discriminator 1
.LVL782:
#NO_APP
.LBE1818:
.LBE1819:
	.loc 1 1734 8 is_stmt 0 discriminator 1
	andi	a5,a5,7
	bne	a5,s3,.L188
	.loc 1 1735 3 is_stmt 1
.LVL783:
.LBB1820:
.LBB1821:
	.loc 1 59 3
	li	a0,15
	call	sdelay
.LVL784:
.LBE1821:
.LBE1820:
	.loc 1 1738 3
	.loc 1 1738 5 is_stmt 0
	bne	s1,s3,.L189
	.loc 1 1740 4 is_stmt 1
.LVL785:
.LBB1822:
.LBB1823:
	.loc 2 138 2
	.loc 2 140 2
	.loc 2 140 6 is_stmt 0
	lw	a5,264(s2)
.LVL786:
	.loc 2 141 2 is_stmt 1
#APP
# 141 "/tina-d1/lichee/brandy-2.0/spl/include/arch/riscv/asm/io.h" 1
	fence ir,ir
# 0 "" 2
	.loc 2 142 2
.LVL787:
#NO_APP
.LBE1823:
.LBE1822:
	.loc 1 1741 4
	.loc 1 1742 4
.LBB1824:
.LBB1825:
	.loc 2 96 2
#APP
# 96 "/tina-d1/lichee/brandy-2.0/spl/include/arch/riscv/asm/io.h" 1
	fence ow,ow
# 0 "" 2
	.loc 2 97 2
#NO_APP
.LBE1825:
.LBE1824:
	.loc 1 1741 12 is_stmt 0
	andi	a5,a5,-193
.LVL788:
.LBB1827:
.LBB1826:
	.loc 2 97 2
	sw	a5,264(s2)
.LVL789:
.LBE1826:
.LBE1827:
	.loc 1 1744 4 is_stmt 1
.LBB1828:
.LBB1829:
	.loc 2 138 2
	.loc 2 140 2
	.loc 2 140 6 is_stmt 0
	lw	a5,268(s2)
.LVL790:
	.loc 2 141 2 is_stmt 1
#APP
# 141 "/tina-d1/lichee/brandy-2.0/spl/include/arch/riscv/asm/io.h" 1
	fence ir,ir
# 0 "" 2
	.loc 2 142 2
.LVL791:
#NO_APP
.LBE1829:
.LBE1828:
	.loc 1 1745 4
	.loc 1 1745 12 is_stmt 0
	li	a4,-100663296
	addi	a4,a4,-1
	and	a5,a5,a4
.LVL792:
	.loc 1 1746 4 is_stmt 1
	.loc 1 1747 4
.LBB1830:
.LBB1831:
	.loc 2 96 2
#APP
# 96 "/tina-d1/lichee/brandy-2.0/spl/include/arch/riscv/asm/io.h" 1
	fence ow,ow
# 0 "" 2
	.loc 2 97 2
#NO_APP
.LBE1831:
.LBE1830:
	.loc 1 1746 12 is_stmt 0
	li	a4,33554432
	or	a5,a5,a4
.LVL793:
.LBB1833:
.LBB1832:
	.loc 2 97 2
	sw	a5,268(s2)
.LVL794:
.LBE1832:
.LBE1833:
	.loc 1 1748 4 is_stmt 1
.LBB1834:
.LBB1835:
	.loc 1 59 3
	li	a0,1
	call	sdelay
.LVL795:
.LBE1835:
.LBE1834:
	.loc 1 1750 4
	.loc 1 1751 4
.LBB1836:
.LBB1837:
	.loc 2 96 2
#APP
# 96 "/tina-d1/lichee/brandy-2.0/spl/include/arch/riscv/asm/io.h" 1
	fence ow,ow
# 0 "" 2
	.loc 2 97 2
#NO_APP
	li	a5,1025
	sw	a5,0(s2)
.LBE1837:
.LBE1836:
.LBB1838:
.LBB1839:
	.loc 2 140 6 is_stmt 0
	li	a4,51392512
.L190:
.LBE1839:
.LBE1838:
	.loc 1 1752 44 is_stmt 1 discriminator 1
.LVL796:
.LBB1841:
.LBB1840:
	.loc 2 138 2 discriminator 1
	.loc 2 140 2 discriminator 1
	.loc 2 140 6 is_stmt 0 discriminator 1
	lw	a5,16(a4)
.LVL797:
	.loc 2 141 2 is_stmt 1 discriminator 1
#APP
# 141 "/tina-d1/lichee/brandy-2.0/spl/include/arch/riscv/asm/io.h" 1
	fence ir,ir
# 0 "" 2
	.loc 2 142 2 discriminator 1
.LVL798:
#NO_APP
.LBE1840:
.LBE1841:
	.loc 1 1752 9 is_stmt 0 discriminator 1
	andi	a5,a5,1
	beqz	a5,.L190
	j	.L189
.LVL799:
.L185:
	.loc 1 1762 48 is_stmt 1
	.loc 1 1763 3
	.loc 1 1763 6 is_stmt 0
	li	s0,1048576
	and	s0,a5,s0
	.loc 1 1763 5
	beqz	s0,.L186
	.loc 1 1765 4 is_stmt 1
	lui	a0,%hi(.LC12)
	addi	a0,a0,%lo(.LC12)
	call	sys_uart_printf
.LVL800:
	.loc 1 1766 4
	.loc 1 1766 11 is_stmt 0
	li	s0,0
.LVL801:
.L191:
	.loc 1 1808 1
	mv	a0,s0
	ld	ra,40(sp)
	.cfi_restore 1
	ld	s0,8(sp)
	.cfi_restore 8
	ld	s1,16(sp)
	.cfi_restore 9
.LVL802:
	ld	s2,24(sp)
	.cfi_restore 18
	ld	s3,32(sp)
	.cfi_restore 19
	addi	sp,sp,48
	.cfi_def_cfa_offset 0
	jr	ra
	.cfi_endproc
.LFE57:
	.size	mctl_channel_init, .-mctl_channel_init
	.section	.text.DRAMC_get_dram_size,"ax",@progbits
	.align	1
	.globl	DRAMC_get_dram_size
	.type	DRAMC_get_dram_size, @function
DRAMC_get_dram_size:
.LFB58:
	.loc 1 1816 1 is_stmt 1
	.cfi_startproc
	.loc 1 1817 2
	.loc 1 1818 2
.LVL803:
	.loc 1 1819 2
	.loc 1 1821 2
.LBB1842:
.LBB1843:
	.loc 2 138 2
	.loc 2 140 2
	.loc 2 140 6 is_stmt 0
	li	a4,51388416
	lw	a5,0(a4)
.LVL804:
	.loc 2 141 2 is_stmt 1
#APP
# 141 "/tina-d1/lichee/brandy-2.0/spl/include/arch/riscv/asm/io.h" 1
	fence ir,ir
# 0 "" 2
	.loc 2 142 2
.LVL805:
#NO_APP
.LBE1843:
.LBE1842:
	.loc 1 1823 2
	.loc 1 1824 2
	.loc 1 1826 2
	.loc 1 1827 2
	.loc 1 1829 2
	.loc 1 1830 2
	.loc 1 1832 2
	.loc 1 1833 2
	.loc 1 1826 7 is_stmt 0
	extu	a3,a5,4+4-1,4
	.loc 1 1823 7
	extu	a0,a5,8+4-1,8
	.loc 1 1832 13
	addw	a0,a0,a3
	addiw	a0,a0,-14
	.loc 1 1829 7
	extu	a3,a5,2+2-1,2
	.loc 1 1832 13
	addw	a0,a0,a3
	.loc 1 1833 16
	li	a3,1
	sllw	a1,a3,a0
	.loc 1 1835 13
	andi	a5,a5,3
.LVL806:
	.loc 1 1833 16
	mv	a0,a1
.LVL807:
	.loc 1 1835 2 is_stmt 1
	.loc 1 1835 4 is_stmt 0
	beqz	a5,.L217
	.loc 1 1837 3 is_stmt 1
.LVL808:
.LBB1844:
.LBB1845:
	.loc 2 138 2
	.loc 2 140 2
	.loc 2 140 6 is_stmt 0
	lw	a4,4(a4)
.LVL809:
	.loc 2 141 2 is_stmt 1
#APP
# 141 "/tina-d1/lichee/brandy-2.0/spl/include/arch/riscv/asm/io.h" 1
	fence ir,ir
# 0 "" 2
	.loc 2 142 2
.LVL810:
#NO_APP
.LBE1845:
.LBE1844:
	.loc 1 1838 3
	.loc 1 1838 5 is_stmt 0
	andi	a2,a4,3
	.loc 1 1854 15
	mv	a5,a1
	.loc 1 1838 5
	beqz	a2,.L217
	.loc 1 1840 4 is_stmt 1
.LVL811:
	.loc 1 1841 4
	.loc 1 1843 4
	.loc 1 1844 4
	.loc 1 1846 4
	.loc 1 1847 4
	.loc 1 1849 4
	.loc 1 1850 61
	.loc 1 1851 4
	.loc 1 1840 9 is_stmt 0
	extu	a5,a4,8+4-1,8
	.loc 1 1843 9
	extu	a2,a4,4+4-1,4
	.loc 1 1849 15
	addw	a5,a5,a2
	addiw	a5,a5,-14
	.loc 1 1846 9
	extu	a4,a4,2+2-1,2
.LVL812:
	.loc 1 1849 15
	addw	a5,a5,a4
	.loc 1 1851 15
	sllw	a5,a3,a5
.LVL813:
.L217:
	.loc 1 1856 2 is_stmt 1
	.loc 1 1857 1 is_stmt 0
	addw	a0,a0,a5
	ret
	.cfi_endproc
.LFE58:
	.size	DRAMC_get_dram_size, .-DRAMC_get_dram_size
	.section	.text.dqs_gate_detect,"ax",@progbits
	.align	1
	.globl	dqs_gate_detect
	.type	dqs_gate_detect, @function
dqs_gate_detect:
.LFB60:
	.loc 1 2093 1 is_stmt 1
	.cfi_startproc
.LVL814:
	.loc 1 2094 2
	.loc 1 2095 2
	.loc 1 2097 2
.LBB1846:
.LBB1847:
	.loc 2 138 2
	.loc 2 140 2
.LBE1847:
.LBE1846:
	.loc 1 2093 1 is_stmt 0
	addi	sp,sp,-16
	.cfi_def_cfa_offset 16
.LBB1850:
.LBB1848:
	.loc 2 140 6
	li	a5,51392512
.LBE1848:
.LBE1850:
	.loc 1 2093 1
	sd	ra,8(sp)
	sd	s0,0(sp)
	.cfi_offset 1, -8
	.cfi_offset 8, -16
.LBB1851:
.LBB1849:
	.loc 2 140 6
	lw	a4,16(a5)
.LVL815:
	.loc 2 141 2 is_stmt 1
#APP
# 141 "/tina-d1/lichee/brandy-2.0/spl/include/arch/riscv/asm/io.h" 1
	fence ir,ir
# 0 "" 2
	.loc 2 142 2
.LVL816:
#NO_APP
.LBE1849:
.LBE1851:
	.loc 1 2098 2
	.loc 1 2098 4 is_stmt 0
	slli	a3,a4,41
	bgez	a3,.L224
	.loc 1 2101 3 is_stmt 1
.LVL817:
.LBB1852:
.LBB1853:
	.loc 2 138 2
	.loc 2 140 2
	.loc 2 140 6 is_stmt 0
	lw	a1,840(a5)
.LVL818:
	.loc 2 141 2 is_stmt 1
#APP
# 141 "/tina-d1/lichee/brandy-2.0/spl/include/arch/riscv/asm/io.h" 1
	fence ir,ir
# 0 "" 2
	.loc 2 142 2
.LVL819:
#NO_APP
.LBE1853:
.LBE1852:
	.loc 1 2102 3
	.loc 1 2102 15 is_stmt 0
	extu	a1,a1,24+2-1,24
.LVL820:
	.loc 1 2103 3 is_stmt 1
.LBB1854:
.LBB1855:
	.loc 2 138 2
	.loc 2 140 2
	.loc 2 140 6 is_stmt 0
	lw	s0,968(a5)
.LVL821:
	.loc 2 141 2 is_stmt 1
#APP
# 141 "/tina-d1/lichee/brandy-2.0/spl/include/arch/riscv/asm/io.h" 1
	fence ir,ir
# 0 "" 2
	.loc 2 142 2
.LVL822:
#NO_APP
.LBE1855:
.LBE1854:
	.loc 1 2104 3
	.loc 1 2116 4 is_stmt 0
	li	a5,2
	.loc 1 2104 15
	extu	s0,s0,24+2-1,24
.LVL823:
	.loc 1 2116 2 is_stmt 1
	.loc 1 2116 4 is_stmt 0
	bne	a1,a5,.L233
	lw	a4,20(a0)
	li	a5,-61440
	addi	a5,a5,-16
	and	a5,a5,a4
	.loc 1 2116 26 discriminator 1
	bne	s0,a1,.L228
	.loc 1 2119 3 is_stmt 1
	.loc 1 2119 20 is_stmt 0
	sw	a5,20(a0)
.LVL824:
	.loc 1 2120 3 is_stmt 1
	lui	a0,%hi(.LC14)
.LVL825:
	addi	a0,a0,%lo(.LC14)
	j	.L235
.LVL826:
.L224:
	.loc 1 2109 3
	.loc 1 2110 3
	.loc 1 2109 20 is_stmt 0
	lw	a5,20(a0)
	.loc 1 2110 20
	li	a4,4096
.LVL827:
	.loc 1 2109 20
	andi	a5,a5,-16
	.loc 1 2110 20
	or	a5,a5,a4
	sw	a5,20(a0)
.LVL828:
	.loc 1 2111 3 is_stmt 1
	lui	a0,%hi(.LC13)
.LVL829:
	addi	a0,a0,%lo(.LC13)
.L235:
	.loc 1 2129 3 is_stmt 0
	call	sys_uart_printf
.LVL830:
	.loc 1 2149 9
	li	a0,1
.L227:
	.loc 1 2150 1
	ld	ra,8(sp)
	.cfi_remember_state
	.cfi_restore 1
	ld	s0,0(sp)
	.cfi_restore 8
	addi	sp,sp,16
	.cfi_def_cfa_offset 0
	jr	ra
.LVL831:
.L228:
	.cfi_restore_state
	.loc 1 2123 7 is_stmt 1
	.loc 1 2126 3
	.loc 1 2127 3
	.loc 1 2128 3
	.loc 1 2128 20 is_stmt 0
	ori	a5,a5,1
	sw	a5,20(a0)
.LVL832:
	.loc 1 2129 3 is_stmt 1
	lui	a0,%hi(.LC15)
.LVL833:
	addi	a0,a0,%lo(.LC15)
	j	.L235
.LVL834:
.L233:
	.loc 1 2123 7
	.loc 1 2132 7
	.loc 1 2132 9 is_stmt 0
	bnez	a1,.L229
	.loc 1 2135 3 is_stmt 1
	.loc 1 2136 3
	.loc 1 2137 3
	.loc 1 2137 20 is_stmt 0
	lw	a5,20(a0)
	li	a4,4096
	addi	a4,a4,1
	andi	a5,a5,-16
	or	a5,a5,a4
	sw	a5,20(a0)
.LVL835:
	.loc 1 2138 3 is_stmt 1
	lui	a0,%hi(.LC16)
.LVL836:
	addi	a0,a0,%lo(.LC16)
	j	.L235
.LVL837:
.L229:
	.loc 1 2142 3
	.loc 1 2142 6 is_stmt 0
	lw	a0,92(a0)
.LVL838:
	li	a5,536870912
	and	a0,a0,a5
	.loc 1 2142 5
	beqz	a0,.L227
	.loc 1 2144 4 is_stmt 1
	lui	a0,%hi(.LC17)
	addi	a0,a0,%lo(.LC17)
	call	sys_uart_printf
.LVL839:
	.loc 1 2145 4
	lui	a0,%hi(.LC18)
	mv	a1,s0
	addi	a0,a0,%lo(.LC18)
	call	sys_uart_printf
.LVL840:
	.loc 1 2147 10 is_stmt 0
	li	a0,0
	j	.L227
	.cfi_endproc
.LFE60:
	.size	dqs_gate_detect, .-dqs_gate_detect
	.section	.text.dramc_simple_wr_test,"ax",@progbits
	.align	1
	.globl	dramc_simple_wr_test
	.type	dramc_simple_wr_test, @function
dramc_simple_wr_test:
.LFB63:
	.loc 1 2411 1 is_stmt 1
	.cfi_startproc
.LVL841:
	.loc 1 2416 2
	.loc 1 2417 2
	.loc 1 2418 2
	.loc 1 2419 2
	.loc 1 2419 26 is_stmt 0
	srliw	a0,a0,1
.LVL842:
	.loc 1 2411 1
	addi	sp,sp,-48
	.cfi_def_cfa_offset 48
	.loc 1 2419 12
	slliw	a4,a0,20
	.loc 1 2423 3
	li	a2,19087360
	.loc 1 2424 3
	li	a0,-19087360
	.loc 1 2411 1
	sdd	s0,s1,(sp),1,4
	sd	ra,40(sp)
	sd	s2,32(sp)
	.cfi_offset 8, -32
	.cfi_offset 9, -24
	.cfi_offset 1, -8
	.cfi_offset 18, -16
	.loc 1 2411 1
	mv	a7,a1
	.loc 1 2419 12
	mv	s1,a4
.LVL843:
	.loc 1 2421 2 is_stmt 1
	li	a3,1073741824
	.loc 1 2421 8 is_stmt 0
	li	a5,0
	.loc 1 2423 3
	addiw	a2,a2,1383
	.loc 1 2424 3
	addiw	a0,a0,-1384
.LVL844:
.L237:
	.loc 1 2421 2 discriminator 1
	bne	a5,a7,.L238
	.loc 1 2430 25
	li	a5,-19087360
.LVL845:
	.loc 1 2437 25
	li	a0,19087360
	.loc 1 2427 8
	li	s0,0
	.loc 1 2429 9
	extu	a4,a4,31,0
.LBB1856:
.LBB1857:
	.loc 2 140 6
	li	t1,1073741824
.LBE1857:
.LBE1856:
	.loc 1 2430 25
	addiw	a5,a5,-1384
	.loc 1 2437 25
	addiw	a0,a0,1383
.L239:
.LVL846:
	.loc 1 2427 2 discriminator 1
	bne	s0,a7,.L243
	.loc 1 2444 2 is_stmt 1
	lui	a0,%hi(.LC21)
	addi	a0,a0,%lo(.LC21)
	call	sys_uart_printf
.LVL847:
	.loc 1 2445 2
	.loc 1 2445 9 is_stmt 0
	li	a0,0
	j	.L241
.LVL848:
.L238:
	.loc 1 2423 3 is_stmt 1 discriminator 3
.LBB1859:
.LBB1860:
	.loc 2 96 2 discriminator 3
#APP
# 96 "/tina-d1/lichee/brandy-2.0/spl/include/arch/riscv/asm/io.h" 1
	fence ow,ow
# 0 "" 2
	.loc 2 97 2 discriminator 3
#NO_APP
.LBE1860:
.LBE1859:
	.loc 1 2423 3 is_stmt 0 discriminator 3
	extu	a1,a3,31,0
.LVL849:
	addw	a6,a5,a2
.LBB1862:
.LBB1861:
	.loc 2 97 2 discriminator 3
	sw	a6,0(a1)
.LVL850:
.LBE1861:
.LBE1862:
	.loc 1 2424 3 is_stmt 1 discriminator 3
.LBB1863:
.LBB1864:
	.loc 2 96 2 discriminator 3
#APP
# 96 "/tina-d1/lichee/brandy-2.0/spl/include/arch/riscv/asm/io.h" 1
	fence ow,ow
# 0 "" 2
	.loc 2 97 2 discriminator 3
#NO_APP
.LBE1864:
.LBE1863:
	.loc 1 2424 3 is_stmt 0 discriminator 3
	addw	a6,a4,a3
	addw	a1,a5,a0
	extu	a6,a6,31,0
.LBB1866:
.LBB1865:
	.loc 2 97 2 discriminator 3
	sw	a1,0(a6)
.LVL851:
.LBE1865:
.LBE1866:
	.loc 1 2421 31 discriminator 3
	addiw	a5,a5,1
.LVL852:
	addiw	a3,a3,4
	j	.L237
.LVL853:
.L243:
	.loc 1 2429 3 is_stmt 1
	slliw	s2,s0,2
	.loc 1 2429 9 is_stmt 0
	extu	a2,s2,31,0
.LVL854:
.LBB1867:
.LBB1858:
	.loc 2 138 2 is_stmt 1
	.loc 2 140 2
	.loc 2 140 6 is_stmt 0
	add	a2,a2,a4
.LVL855:
	lrw	a1,t1,a2,0
.LVL856:
	.loc 2 141 2 is_stmt 1
#APP
# 141 "/tina-d1/lichee/brandy-2.0/spl/include/arch/riscv/asm/io.h" 1
	fence ir,ir
# 0 "" 2
	.loc 2 142 2
.LVL857:
#NO_APP
.LBE1858:
.LBE1867:
	.loc 1 2430 3
	.loc 1 2430 25 is_stmt 0
	addw	a2,a5,s0
	.loc 1 2430 5
	beq	a2,a1,.L240
	.loc 1 2432 4
	lui	a0,%hi(.LC19)
	addi	a0,a0,%lo(.LC19)
	sd	a1,8(sp)
	sd	a2,0(sp)
	.loc 1 2432 4 is_stmt 1
	call	sys_uart_printf
.LVL858:
	.loc 1 2433 4
	li	a0,1073741824
	addw	s1,a0,s1
.LVL859:
	addw	a3,s1,s2
.LVL860:
.L245:
	.loc 1 2440 4 is_stmt 0
	lui	a0,%hi(.LC20)
	ldd	a2,a1,(sp),0,4
	addi	a0,a0,%lo(.LC20)
	call	sys_uart_printf
.LVL861:
	.loc 1 2441 4 is_stmt 1
	.loc 1 2441 11 is_stmt 0
	li	a0,1
.L241:
	.loc 1 2446 1
	ld	ra,40(sp)
	.cfi_remember_state
	.cfi_restore 1
	ldd	s0,s1,(sp),1,4
	.cfi_restore 9
	.cfi_restore 8
.LVL862:
	ld	s2,32(sp)
	.cfi_restore 18
	addi	sp,sp,48
	.cfi_def_cfa_offset 0
	jr	ra
.LVL863:
.L240:
	.cfi_restore_state
	.loc 1 2436 3 is_stmt 1
.LBB1868:
.LBB1869:
	.loc 2 138 2
	.loc 2 140 2
	.loc 2 140 6 is_stmt 0
	lurw	a1,t1,s2,0
.LVL864:
	.loc 2 141 2 is_stmt 1
#APP
# 141 "/tina-d1/lichee/brandy-2.0/spl/include/arch/riscv/asm/io.h" 1
	fence ir,ir
# 0 "" 2
	.loc 2 142 2
.LVL865:
#NO_APP
.LBE1869:
.LBE1868:
	.loc 1 2437 3
	.loc 1 2437 25 is_stmt 0
	addw	a2,a0,s0
	.loc 1 2437 5
	beq	a2,a1,.L242
	.loc 1 2439 4
	lui	a0,%hi(.LC19)
	addi	a0,a0,%lo(.LC19)
	sd	a1,8(sp)
	sd	a2,0(sp)
	.loc 1 2439 4 is_stmt 1
	call	sys_uart_printf
.LVL866:
	.loc 1 2440 4
	li	a3,268435456
	addw	a3,a3,s0
	slliw	a3,a3,2
	j	.L245
.LVL867:
.L242:
	.loc 1 2427 31 is_stmt 0 discriminator 2
	addiw	s0,s0,1
.LVL868:
	j	.L239
	.cfi_endproc
.LFE63:
	.size	dramc_simple_wr_test, .-dramc_simple_wr_test
	.section	.text.mctl_vrefzq_init,"ax",@progbits
	.align	1
	.globl	mctl_vrefzq_init
	.type	mctl_vrefzq_init, @function
mctl_vrefzq_init:
.LFB64:
	.loc 1 2453 1 is_stmt 1
	.cfi_startproc
.LVL869:
	.loc 1 2454 2
	.loc 1 2456 5
	.loc 1 2456 8 is_stmt 0
	lw	a5,92(a0)
	.loc 1 2456 7
	slli	a4,a5,46
	bltz	a4,.L246
	.loc 1 2458 3 is_stmt 1
.LVL870:
.LBB1884:
.LBB1885:
	.loc 2 138 2
	.loc 2 140 2
	.loc 2 140 6 is_stmt 0
	li	a4,51392512
	lw	a5,272(a4)
.LVL871:
	.loc 2 141 2 is_stmt 1
#APP
# 141 "/tina-d1/lichee/brandy-2.0/spl/include/arch/riscv/asm/io.h" 1
	fence ir,ir
# 0 "" 2
	.loc 2 142 2
.LVL872:
#NO_APP
.LBE1885:
.LBE1884:
	.loc 1 2459 3
	.loc 1 2459 11 is_stmt 0
	li	a3,-2139062272
	addi	a3,a3,128
	and	a5,a5,a3
.LVL873:
	.loc 1 2460 3 is_stmt 1
	.loc 1 2460 11 is_stmt 0
	lw	a3,60(a0)
	or	a5,a5,a3
.LVL874:
	sext.w	a5,a5
.LVL875:
	.loc 1 2461 3 is_stmt 1
.LBB1886:
.LBB1887:
	.loc 2 96 2
#APP
# 96 "/tina-d1/lichee/brandy-2.0/spl/include/arch/riscv/asm/io.h" 1
	fence ow,ow
# 0 "" 2
	.loc 2 97 2
#NO_APP
	sw	a5,272(a4)
.LVL876:
.LBE1887:
.LBE1886:
	.loc 1 2463 6
	.loc 1 2463 9 is_stmt 0
	lw	a5,92(a0)
.LVL877:
	.loc 1 2463 8
	slli	a3,a5,47
	bltz	a3,.L246
.LVL878:
.LBB1888:
.LBB1889:
	.loc 1 2465 4 is_stmt 1
.LBB1890:
.LBB1891:
	.loc 2 138 2
	.loc 2 140 2
	.loc 2 140 6 is_stmt 0
	lw	a5,276(a4)
.LVL879:
	.loc 2 141 2 is_stmt 1
#APP
# 141 "/tina-d1/lichee/brandy-2.0/spl/include/arch/riscv/asm/io.h" 1
	fence ir,ir
# 0 "" 2
	.loc 2 142 2
.LVL880:
#NO_APP
.LBE1891:
.LBE1890:
	.loc 1 2466 4
	.loc 1 2466 12 is_stmt 0
	andi	a3,a5,-128
.LVL881:
	.loc 1 2467 4 is_stmt 1
	.loc 1 2467 32 is_stmt 0
	lw	a5,64(a0)
	andi	a5,a5,127
	.loc 1 2467 12
	or	a5,a5,a3
.LVL882:
	.loc 1 2468 4 is_stmt 1
.LBB1892:
.LBB1893:
	.loc 2 96 2
#APP
# 96 "/tina-d1/lichee/brandy-2.0/spl/include/arch/riscv/asm/io.h" 1
	fence ow,ow
# 0 "" 2
	.loc 2 97 2
#NO_APP
	sw	a5,276(a4)
.LVL883:
.L246:
.LBE1893:
.LBE1892:
.LBE1889:
.LBE1888:
	.loc 1 2471 1 is_stmt 0
	ret
	.cfi_endproc
.LFE64:
	.size	mctl_vrefzq_init, .-mctl_vrefzq_init
	.section	.text.mctl_core_init,"ax",@progbits
	.align	1
	.globl	mctl_core_init
	.type	mctl_core_init, @function
mctl_core_init:
.LFB65:
	.loc 1 2478 1 is_stmt 1
	.cfi_startproc
.LVL884:
	.loc 1 2479 2
	.loc 1 2480 2
	.loc 1 2478 1 is_stmt 0
	addi	sp,sp,-16
	.cfi_def_cfa_offset 16
	sd	ra,8(sp)
	sd	s0,0(sp)
	.cfi_offset 1, -8
	.cfi_offset 8, -16
	.loc 1 2478 1
	mv	s0,a0
	.loc 1 2480 2
	call	mctl_sys_init
.LVL885:
	.loc 1 2481 2 is_stmt 1
	mv	a0,s0
	call	mctl_vrefzq_init
.LVL886:
	.loc 1 2482 2
	mv	a0,s0
	call	mctl_com_init
.LVL887:
	.loc 1 2483 2
	mv	a0,s0
	call	mctl_phy_ac_remapping
.LVL888:
	.loc 1 2484 2
	mv	a0,s0
	call	auto_set_timing_para
.LVL889:
	.loc 1 2485 2
	.loc 1 2485 12 is_stmt 0
	mv	a1,s0
	.loc 1 2487 1
	ld	s0,0(sp)
	.cfi_restore 8
.LVL890:
	ld	ra,8(sp)
	.cfi_restore 1
	.loc 1 2485 12
	li	a0,0
	.loc 1 2487 1
	addi	sp,sp,16
	.cfi_def_cfa_offset 0
	.loc 1 2485 12
	tail	mctl_channel_init
.LVL891:
	.cfi_endproc
.LFE65:
	.size	mctl_core_init, .-mctl_core_init
	.section	.text.auto_scan_dram_size,"ax",@progbits
	.align	1
	.globl	auto_scan_dram_size
	.type	auto_scan_dram_size, @function
auto_scan_dram_size:
.LFB59:
	.loc 1 1904 1 is_stmt 1
	.cfi_startproc
.LVL892:
	.loc 1 1905 2
	.loc 1 1906 2
	.loc 1 1907 2
	.loc 1 1908 2
	.loc 1 1909 2
	.loc 1 1911 2
	.loc 1 1904 1 is_stmt 0
	addi	sp,sp,-128
	.cfi_def_cfa_offset 128
	sd	s1,104(sp)
	sd	s7,56(sp)
	sd	ra,120(sp)
	sd	s0,112(sp)
	sd	s2,96(sp)
	sd	s3,88(sp)
	sd	s4,80(sp)
	sd	s5,72(sp)
	sd	s6,64(sp)
	sd	s8,48(sp)
	sd	s9,40(sp)
	sd	s10,32(sp)
	sd	s11,24(sp)
	.cfi_offset 9, -24
	.cfi_offset 23, -72
	.cfi_offset 1, -8
	.cfi_offset 8, -16
	.cfi_offset 18, -32
	.cfi_offset 19, -40
	.cfi_offset 20, -48
	.cfi_offset 21, -56
	.cfi_offset 22, -64
	.cfi_offset 24, -80
	.cfi_offset 25, -88
	.cfi_offset 26, -96
	.cfi_offset 27, -104
	.loc 1 1904 1
	mv	s7,a0
	.loc 1 1911 8
	call	mctl_core_init
.LVL893:
	sext.w	s1,a0
.LVL894:
	.loc 1 1912 2 is_stmt 1
	.loc 1 1912 4 is_stmt 0
	bnez	s1,.L253
	.loc 1 1913 4 is_stmt 1
	lui	a0,%hi(.LC22)
	addi	a0,a0,%lo(.LC22)
.LVL895:
.L301:
	.loc 1 2080 4 is_stmt 0
	call	sys_uart_printf
.LVL896:
.L289:
	.loc 1 2084 1
	ld	ra,120(sp)
	.cfi_remember_state
	.cfi_restore 1
	ld	s0,112(sp)
	.cfi_restore 8
	mv	a0,s1
	ld	s2,96(sp)
	.cfi_restore 18
	ld	s1,104(sp)
	.cfi_restore 9
	ld	s3,88(sp)
	.cfi_restore 19
	ld	s4,80(sp)
	.cfi_restore 20
	ld	s5,72(sp)
	.cfi_restore 21
	ld	s6,64(sp)
	.cfi_restore 22
	ld	s7,56(sp)
	.cfi_restore 23
.LVL897:
	ld	s8,48(sp)
	.cfi_restore 24
	ld	s9,40(sp)
	.cfi_restore 25
	ld	s10,32(sp)
	.cfi_restore 26
	ld	s11,24(sp)
	.cfi_restore 27
	addi	sp,sp,128
	.cfi_def_cfa_offset 0
	jr	ra
.LVL898:
.L253:
	.cfi_restore_state
	.loc 1 1918 2 is_stmt 1
	.loc 1 1918 25 is_stmt 0
	lw	a5,20(s7)
	.loc 1 1906 15
	li	s0,1
	.loc 1 1918 4
	extu	a5,a5,12+4-1,12
	bne	a5,s0,.L255
	.loc 1 1919 12
	li	s0,2
.L255:
.LVL899:
	.loc 1 1920 2 is_stmt 1
	.loc 1 1922 3
	.loc 1 1947 11 is_stmt 0
	li	s4,-4096
.LBB1894:
.LBB1895:
	.loc 1 128 8
	li	s3,4096
.LBE1895:
.LBE1894:
	.loc 1 1935 19
	li	s6,51388416
	li	s10,0
	.loc 1 1920 8
	li	s8,0
	.loc 1 1909 15
	li	s1,1073741824
.LVL900:
	.loc 1 1908 15
	li	s9,1073741824
	.loc 1 1940 3
	li	s2,64
	.loc 1 1973 3
	lui	s5,%hi(.LC23)
.LBB1899:
.LBB1900:
	.loc 1 128 8
	addi	s11,s4,3
.LBE1900:
.LBE1899:
.LBB1903:
.LBB1896:
	addi	s3,s3,-1376
.LVL901:
.L256:
.LBE1896:
.LBE1903:
	.loc 1 1940 3 is_stmt 1
	extu	a4,s9,31,0
	.loc 1 1940 9 is_stmt 0
	li	a5,0
.LVL902:
.L259:
	.loc 1 1942 4 is_stmt 1
	andi	a2,a5,1
	sext.w	a3,a4
	bnez	a2,.L258
	not	a3,a3
.L258:
.LVL903:
.LBB1904:
.LBB1905:
	.loc 2 96 2 discriminator 4
#APP
# 96 "/tina-d1/lichee/brandy-2.0/spl/include/arch/riscv/asm/io.h" 1
	fence ow,ow
# 0 "" 2
	.loc 2 97 2 discriminator 4
#NO_APP
	swia	a3,(a4),4,0
.LVL904:
.LBE1905:
.LBE1904:
	.loc 1 1940 23 is_stmt 0 discriminator 4
	addiw	a5,a5,1
.LVL905:
	.loc 1 1940 3 discriminator 4
	bne	a5,s2,.L259
	.loc 1 1944 3 is_stmt 1
.LVL906:
.LBB1906:
.LBB1907:
	.loc 2 138 2
	.loc 2 140 2
	.loc 2 140 6 is_stmt 0
	lw	a5,0(s6)
.LVL907:
	.loc 2 141 2 is_stmt 1
#APP
# 141 "/tina-d1/lichee/brandy-2.0/spl/include/arch/riscv/asm/io.h" 1
	fence ir,ir
# 0 "" 2
	.loc 2 142 2
.LVL908:
#NO_APP
.LBE1907:
.LBE1906:
	.loc 1 1945 3
	.loc 1 127 2
	.loc 1 128 2
	.loc 1 1946 3
	.loc 1 127 2
	.loc 1 128 2
	.loc 1 1947 3
	.loc 1 1947 11 is_stmt 0
	addi	a4,s4,243
	and	a5,a5,a4
.LVL909:
	ori	a5,a5,1776
.LVL910:
	.loc 1 1948 3 is_stmt 1
.LBB1908:
.LBB1909:
	.loc 2 96 2
#APP
# 96 "/tina-d1/lichee/brandy-2.0/spl/include/arch/riscv/asm/io.h" 1
	fence ow,ow
# 0 "" 2
	.loc 2 97 2
#NO_APP
	sw	a5,0(s6)
.L260:
.LBE1909:
.LBE1908:
	.loc 1 1949 52 discriminator 1
.LVL911:
.LBB1910:
.LBB1911:
	.loc 2 138 2 discriminator 1
	.loc 2 140 2 discriminator 1
	.loc 2 140 6 is_stmt 0 discriminator 1
	lw	a4,0(s6)
.LVL912:
	.loc 2 141 2 is_stmt 1 discriminator 1
#APP
# 141 "/tina-d1/lichee/brandy-2.0/spl/include/arch/riscv/asm/io.h" 1
	fence ir,ir
# 0 "" 2
	.loc 2 142 2 discriminator 1
.LVL913:
#NO_APP
.LBE1911:
.LBE1910:
	.loc 1 1949 8 is_stmt 0 discriminator 1
	bne	a5,a4,.L260
	.loc 1 1951 9
	li	a4,11
	.loc 1 1953 30
	li	a7,1
	.loc 1 1951 3
	li	a6,17
.LVL914:
.L280:
	.loc 1 1953 4 is_stmt 1
	.loc 1 1954 4
	.loc 1 1955 4
	.loc 1 1953 40 is_stmt 0
	addiw	a5,a4,11
	.loc 1 1953 30
	sllw	a5,a7,a5
	.loc 1 1953 8
	addw	a5,a5,s9
	extu	a5,a5,31,0
	mv	a2,s1
	.loc 1 1955 10
	li	a3,0
.LVL915:
.L263:
	.loc 1 1957 5 is_stmt 1
	.loc 1 1957 51 is_stmt 0
	andi	a0,a3,1
	mv	a1,a2
	bnez	a0,.L261
	not	a1,a2
	sext.w	a1,a1
.L261:
.LVL916:
	.loc 1 1958 5 is_stmt 1 discriminator 4
.LBB1912:
.LBB1913:
	.loc 2 138 2 discriminator 4
	.loc 2 140 2 discriminator 4
	.loc 2 140 6 is_stmt 0 discriminator 4
	lw	a0,0(a5)
.LVL917:
	.loc 2 141 2 is_stmt 1 discriminator 4
#APP
# 141 "/tina-d1/lichee/brandy-2.0/spl/include/arch/riscv/asm/io.h" 1
	fence ir,ir
# 0 "" 2
	.loc 2 142 2 discriminator 4
.LVL918:
#NO_APP
.LBE1913:
.LBE1912:
	.loc 1 1958 7 is_stmt 0 discriminator 4
	bne	a1,a0,.L262
	.loc 1 1960 6 is_stmt 1 discriminator 2
.LVL919:
	addiw	a3,a3,1
.LVL920:
	addiw	a2,a2,4
	addi	a5,a5,4
	.loc 1 1955 4 is_stmt 0 discriminator 2
	bne	a3,s2,.L263
.LVL921:
.L281:
	.loc 1 1972 3 is_stmt 1
	.loc 1 1973 3
	mv	a2,a4
	mv	a1,s8
.LVL922:
	addi	a0,s5,%lo(.LC23)
	sd	a4,8(sp)
	call	sys_uart_printf
.LVL923:
	.loc 1 1974 3
	.loc 1 1974 52 is_stmt 0
	addiw	a5,s10,4
.LVL924:
.LBB1914:
.LBB1915:
	.loc 1 127 2 is_stmt 1
	.loc 1 128 2
	.loc 1 127 8 is_stmt 0
	lw	a3,16(s7)
.LBE1915:
.LBE1914:
	.loc 1 1974 3
	li	a2,255
	ld	a4,8(sp)
	sllw	a2,a2,a5
.LBB1918:
.LBB1916:
	.loc 1 127 11
	not	a2,a2
.LBE1916:
.LBE1918:
	.loc 1 1974 3
	sllw	a4,a4,a5
.LBB1919:
.LBB1917:
	.loc 1 127 8
	and	a2,a2,a3
	.loc 1 128 8
	or	a2,a2,a4
	sw	a2,16(s7)
.LVL925:
.LBE1917:
.LBE1919:
	.loc 1 1976 3 is_stmt 1
	.loc 1 1976 5 is_stmt 0
	li	a5,1
	bne	s8,a5,.L264
	.loc 1 1978 4 is_stmt 1
.LVL926:
.LBB1920:
.LBB1921:
	.loc 2 138 2
	.loc 2 140 2
	.loc 2 140 6 is_stmt 0
	li	a4,51388416
	lw	a5,0(a4)
.LVL927:
	.loc 2 141 2 is_stmt 1
#APP
# 141 "/tina-d1/lichee/brandy-2.0/spl/include/arch/riscv/asm/io.h" 1
	fence ir,ir
# 0 "" 2
	.loc 2 142 2
.LVL928:
#NO_APP
.LBE1921:
.LBE1920:
	.loc 1 1979 4
	.loc 1 127 2
	.loc 1 128 2
	.loc 1 1980 4
	.loc 1 127 2
	.loc 1 128 2
	.loc 1 1981 4
.LBB1922:
.LBB1901:
	.loc 1 127 2
	.loc 1 128 2
.LBE1901:
.LBE1922:
	.loc 1 1982 4
.LBB1923:
.LBB1924:
	.loc 2 96 2
#APP
# 96 "/tina-d1/lichee/brandy-2.0/spl/include/arch/riscv/asm/io.h" 1
	fence ow,ow
# 0 "" 2
	.loc 2 97 2
#NO_APP
.LBE1924:
.LBE1923:
.LBB1926:
.LBB1902:
	.loc 1 128 8 is_stmt 0
	and	a5,a5,s11
.LVL929:
	ori	a5,a5,1700
.LBE1902:
.LBE1926:
.LBB1927:
.LBB1925:
	.loc 2 97 2
	sw	a5,0(a4)
.LVL930:
.LBE1925:
.LBE1927:
	.loc 1 1983 4 is_stmt 1
	.loc 1 1983 19 is_stmt 0
	li	s9,1082130432
.LVL931:
.L264:
	.loc 1 1987 3 is_stmt 1
.LBB1928:
.LBB1929:
	.loc 2 138 2
	.loc 2 140 2
	.loc 2 140 6 is_stmt 0
	lw	a5,0(s6)
.LVL932:
	.loc 2 141 2 is_stmt 1
#APP
# 141 "/tina-d1/lichee/brandy-2.0/spl/include/arch/riscv/asm/io.h" 1
	fence ir,ir
# 0 "" 2
	.loc 2 142 2
.LVL933:
#NO_APP
.LBE1929:
.LBE1928:
	.loc 1 1988 3
	.loc 1 127 2
	.loc 1 128 2
	.loc 1 1989 3
	.loc 1 127 2
	.loc 1 128 2
	.loc 1 1990 3
.LBB1930:
.LBB1931:
	.loc 1 127 2
	.loc 1 128 2
	.loc 1 128 8 is_stmt 0
	and	a5,a5,s11
.LVL934:
	ori	a5,a5,1700
.LVL935:
.LBE1931:
.LBE1930:
	.loc 1 1991 3 is_stmt 1
.LBB1932:
.LBB1933:
	.loc 2 96 2
#APP
# 96 "/tina-d1/lichee/brandy-2.0/spl/include/arch/riscv/asm/io.h" 1
	fence ow,ow
# 0 "" 2
	.loc 2 97 2
#NO_APP
	sw	a5,0(s6)
.L265:
.LBE1933:
.LBE1932:
	.loc 1 1996 52 discriminator 1
.LVL936:
.LBB1934:
.LBB1935:
	.loc 2 138 2 discriminator 1
	.loc 2 140 2 discriminator 1
	.loc 2 140 6 is_stmt 0 discriminator 1
	lw	a4,0(s6)
.LVL937:
	.loc 2 141 2 is_stmt 1 discriminator 1
#APP
# 141 "/tina-d1/lichee/brandy-2.0/spl/include/arch/riscv/asm/io.h" 1
	fence ir,ir
# 0 "" 2
	.loc 2 142 2 discriminator 1
.LVL938:
#NO_APP
.LBE1935:
.LBE1934:
	.loc 1 1996 8 is_stmt 0 discriminator 1
	bne	a4,a5,.L265
.LVL939:
	.loc 1 1999 4 is_stmt 1 discriminator 1
	.loc 1 2000 4 discriminator 1
	.loc 1 2001 4 discriminator 1
	.loc 1 1999 8 is_stmt 0 discriminator 1
	li	a5,4096
.LVL940:
	addiw	a5,a5,-2048
	addw	a5,s9,a5
	extu	a5,a5,31,0
	mv	a3,s1
	.loc 1 2001 10 discriminator 1
	li	a4,0
.LVL941:
.L269:
	.loc 1 2003 5 is_stmt 1
	.loc 1 2003 51 is_stmt 0
	andi	a1,a4,1
	mv	a2,a3
	bnez	a1,.L267
	not	a2,a3
	sext.w	a2,a2
.L267:
.LVL942:
	.loc 1 2004 5 is_stmt 1 discriminator 4
.LBB1936:
.LBB1937:
	.loc 2 138 2 discriminator 4
	.loc 2 140 2 discriminator 4
	.loc 2 140 6 is_stmt 0 discriminator 4
	lw	a1,0(a5)
.LVL943:
	.loc 2 141 2 is_stmt 1 discriminator 4
#APP
# 141 "/tina-d1/lichee/brandy-2.0/spl/include/arch/riscv/asm/io.h" 1
	fence ir,ir
# 0 "" 2
	.loc 2 142 2 discriminator 4
.LVL944:
#NO_APP
.LBE1937:
.LBE1936:
	.loc 1 2004 7 is_stmt 0 discriminator 4
	bne	a2,a1,.L285
	.loc 1 2006 6 is_stmt 1 discriminator 2
.LVL945:
	addiw	a4,a4,1
.LVL946:
	addiw	a3,a3,4
	addi	a5,a5,4
	.loc 1 2001 4 is_stmt 0 discriminator 2
	bne	a4,s2,.L269
	li	a4,0
.L268:
	.loc 1 2016 3 is_stmt 1
	.loc 1 2017 3
	addiw	a2,a4,1
.LVL947:
	lui	a0,%hi(.LC24)
	slli	a2,a2,2
	mv	a1,s8
	addi	a0,a0,%lo(.LC24)
	sd	a4,8(sp)
	call	sys_uart_printf
.LVL948:
	.loc 1 2018 3
	.loc 1 2018 51 is_stmt 0
	addiw	a3,s10,12
.LVL949:
.LBB1938:
.LBB1939:
	.loc 1 127 2 is_stmt 1
	.loc 1 128 2
	.loc 1 127 8 is_stmt 0
	lw	a2,16(s7)
.LBE1939:
.LBE1938:
	.loc 1 2018 3
	li	a5,15
	ld	a4,8(sp)
	sllw	a5,a5,a3
.LBB1942:
.LBB1940:
	.loc 1 127 11
	not	a5,a5
	.loc 1 127 8
	and	a5,a5,a2
.LBE1940:
.LBE1942:
	.loc 1 2018 3
	sllw	a4,a4,a3
.LBB1943:
.LBB1941:
	.loc 1 128 8
	or	a5,a5,a4
	sw	a5,16(s7)
.LVL950:
.LBE1941:
.LBE1943:
	.loc 1 2020 3 is_stmt 1
	.loc 1 2020 5 is_stmt 0
	li	a5,1
	bne	s8,a5,.L270
	.loc 1 2022 4 is_stmt 1
.LVL951:
.LBB1944:
.LBB1945:
	.loc 2 138 2
	.loc 2 140 2
	.loc 2 140 6 is_stmt 0
	li	a4,51388416
	lw	a5,0(a4)
.LVL952:
	.loc 2 141 2 is_stmt 1
#APP
# 141 "/tina-d1/lichee/brandy-2.0/spl/include/arch/riscv/asm/io.h" 1
	fence ir,ir
# 0 "" 2
	.loc 2 142 2
.LVL953:
#NO_APP
.LBE1945:
.LBE1944:
	.loc 1 2023 4
	.loc 1 127 2
	.loc 1 128 2
	.loc 1 2024 4
	.loc 1 127 2
	.loc 1 128 2
	.loc 1 2025 4
.LBB1946:
.LBB1897:
	.loc 1 127 2
	.loc 1 128 2
.LBE1897:
.LBE1946:
	.loc 1 2026 4
.LBB1947:
.LBB1948:
	.loc 2 96 2
#APP
# 96 "/tina-d1/lichee/brandy-2.0/spl/include/arch/riscv/asm/io.h" 1
	fence ow,ow
# 0 "" 2
	.loc 2 97 2
#NO_APP
.LBE1948:
.LBE1947:
.LBB1950:
.LBB1898:
	.loc 1 128 8 is_stmt 0
	and	a5,a5,s11
.LVL954:
	or	a5,a5,s3
.LBE1898:
.LBE1950:
.LBB1951:
.LBB1949:
	.loc 2 97 2
	sw	a5,0(a4)
.LVL955:
.LBE1949:
.LBE1951:
	.loc 1 2027 4 is_stmt 1
	.loc 1 2027 19 is_stmt 0
	li	s9,1140850688
.LVL956:
.L270:
	.loc 1 2031 3 is_stmt 1
.LBB1952:
.LBB1953:
	.loc 2 138 2
	.loc 2 140 2
	.loc 2 140 6 is_stmt 0
	lw	a5,0(s6)
.LVL957:
	.loc 2 141 2 is_stmt 1
#APP
# 141 "/tina-d1/lichee/brandy-2.0/spl/include/arch/riscv/asm/io.h" 1
	fence ir,ir
# 0 "" 2
	.loc 2 142 2
.LVL958:
#NO_APP
.LBE1953:
.LBE1952:
	.loc 1 2032 3
	.loc 1 127 2
	.loc 1 128 2
	.loc 1 2033 3
	.loc 1 127 2
	.loc 1 128 2
	.loc 1 2034 3
.LBB1954:
.LBB1955:
	.loc 1 127 2
	.loc 1 128 2
	.loc 1 128 8 is_stmt 0
	and	a5,a5,s11
.LVL959:
	or	a5,a5,s3
.LVL960:
.LBE1955:
.LBE1954:
	.loc 1 2035 3 is_stmt 1
.LBB1956:
.LBB1957:
	.loc 2 96 2
#APP
# 96 "/tina-d1/lichee/brandy-2.0/spl/include/arch/riscv/asm/io.h" 1
	fence ow,ow
# 0 "" 2
	.loc 2 97 2
#NO_APP
	sw	a5,0(s6)
.L271:
.LBE1957:
.LBE1956:
	.loc 1 2036 52 discriminator 1
.LVL961:
.LBB1958:
.LBB1959:
	.loc 2 138 2 discriminator 1
	.loc 2 140 2 discriminator 1
	.loc 2 140 6 is_stmt 0 discriminator 1
	lw	a4,0(s6)
.LVL962:
	.loc 2 141 2 is_stmt 1 discriminator 1
#APP
# 141 "/tina-d1/lichee/brandy-2.0/spl/include/arch/riscv/asm/io.h" 1
	fence ir,ir
# 0 "" 2
	.loc 2 142 2 discriminator 1
.LVL963:
#NO_APP
.LBE1959:
.LBE1958:
	.loc 1 2036 8 is_stmt 0 discriminator 1
	bne	a4,a5,.L271
	.loc 1 2037 8
	li	a4,9
	.loc 1 2039 33
	li	a7,1
	.loc 1 2037 3
	li	a6,14
.LVL964:
.L279:
	.loc 1 2039 4 is_stmt 1
	.loc 1 2040 4
	.loc 1 2041 4
	.loc 1 2039 33 is_stmt 0
	sllw	a5,a7,a4
	.loc 1 2039 8
	addw	a5,a5,s9
	extu	a5,a5,31,0
	mv	a2,s1
	.loc 1 2041 10
	li	a3,0
.LVL965:
.L274:
	.loc 1 2043 5 is_stmt 1
	.loc 1 2043 51 is_stmt 0
	andi	a0,a3,1
	mv	a1,a2
	bnez	a0,.L272
	not	a1,a2
	sext.w	a1,a1
.L272:
.LVL966:
	.loc 1 2044 5 is_stmt 1 discriminator 4
.LBB1960:
.LBB1961:
	.loc 2 138 2 discriminator 4
	.loc 2 140 2 discriminator 4
	.loc 2 140 6 is_stmt 0 discriminator 4
	lw	a0,0(a5)
.LVL967:
	.loc 2 141 2 is_stmt 1 discriminator 4
#APP
# 141 "/tina-d1/lichee/brandy-2.0/spl/include/arch/riscv/asm/io.h" 1
	fence ir,ir
# 0 "" 2
	.loc 2 142 2 discriminator 4
.LVL968:
#NO_APP
.LBE1961:
.LBE1960:
	.loc 1 2044 7 is_stmt 0 discriminator 4
	bne	a1,a0,.L273
	.loc 1 2046 6 is_stmt 1 discriminator 2
.LVL969:
	addiw	a3,a3,1
.LVL970:
	addiw	a2,a2,4
	addi	a5,a5,4
	.loc 1 2041 4 is_stmt 0 discriminator 2
	bne	a3,s2,.L274
	.loc 1 2051 4 is_stmt 1
	.loc 1 2056 3
	.loc 1 2056 5 is_stmt 0
	li	a5,13
	beq	a4,a5,.L275
	.loc 1 2058 3 is_stmt 1
	.loc 1 2059 3
	.loc 1 2059 5 is_stmt 0
	li	a5,9
	.loc 1 2060 6
	li	a3,0
	.loc 1 2059 5
	beq	a4,a5,.L276
.LVL971:
.L275:
	.loc 1 2062 4 is_stmt 1
	.loc 1 2062 20 is_stmt 0
	addiw	a4,a4,-10
	.loc 1 2062 6
	li	a3,1
	sllw	a3,a3,a4
.LVL972:
.L276:
	.loc 1 2064 3 is_stmt 1 discriminator 2
	lui	a0,%hi(.LC25)
	mv	a2,a3
	mv	a1,s8
.LVL973:
	addi	a0,a0,%lo(.LC25)
	sd	a3,8(sp)
	call	sys_uart_printf
.LVL974:
	.loc 1 2065 3 discriminator 2
.LBB1962:
.LBB1963:
	.loc 1 127 2 discriminator 2
	.loc 1 128 2 discriminator 2
	.loc 1 127 8 is_stmt 0 discriminator 2
	lw	a4,16(s7)
.LBE1963:
.LBE1962:
	.loc 1 2065 3 discriminator 2
	li	a5,15
	ld	a3,8(sp)
	sllw	a5,a5,s10
.LBB1966:
.LBB1964:
	.loc 1 127 11 discriminator 2
	not	a5,a5
	.loc 1 127 8 discriminator 2
	and	a5,a5,a4
.LBE1964:
.LBE1966:
	.loc 1 2065 3 discriminator 2
	sllw	a4,a3,s10
.LBB1967:
.LBB1965:
	.loc 1 128 8 discriminator 2
	or	a5,a5,a4
	sext.w	a5,a5
	sw	a5,16(s7)
.LVL975:
.LBE1965:
.LBE1967:
	.loc 1 1920 28 discriminator 2
	addiw	s8,s8,1
	.loc 1 1920 2 discriminator 2
	bne	s0,s8,.L277
	.loc 1 2069 2 is_stmt 1
	.loc 1 2069 4 is_stmt 0
	li	a4,2
	.loc 1 2083 9
	li	s1,1
.LVL976:
	.loc 1 2069 4
	bne	s0,a4,.L289
	.loc 1 2071 3 is_stmt 1
	lw	a3,20(s7)
	li	a4,-4096
	addi	a4,a4,255
	and	a4,a4,a3
	.loc 1 2071 5 is_stmt 0
	extu	a3,a5,16+16-1,16
	extu	a5,a5,15,0
	bne	a3,a5,.L278
	.loc 1 2073 4 is_stmt 1
	.loc 1 2074 4 is_stmt 0
	lui	a0,%hi(.LC26)
	.loc 1 2073 21
	sw	a4,20(s7)
	.loc 1 2074 4 is_stmt 1
	addi	a0,a0,%lo(.LC26)
	j	.L301
.LVL977:
.L277:
	.loc 1 1922 3
	.loc 1 1922 5 is_stmt 0
	li	a5,1
	bne	s8,a5,.L257
	.loc 1 1924 4 is_stmt 1
.LVL978:
.LBB1968:
.LBB1969:
	.loc 2 138 2
	.loc 2 140 2
	.loc 2 140 6 is_stmt 0
	li	a4,51388416
	lw	a5,0(a4)
.LVL979:
	.loc 2 141 2 is_stmt 1
#APP
# 141 "/tina-d1/lichee/brandy-2.0/spl/include/arch/riscv/asm/io.h" 1
	fence ir,ir
# 0 "" 2
	.loc 2 142 2
.LVL980:
#NO_APP
.LBE1969:
.LBE1968:
	.loc 1 1925 4
	.loc 1 127 2
	.loc 1 128 2
	.loc 1 1926 4
	.loc 1 127 2
	.loc 1 128 2
	.loc 1 1927 4
.LBB1970:
.LBB1971:
	.loc 1 127 2
	.loc 1 128 2
.LBE1971:
.LBE1970:
	.loc 1 1928 4
.LBB1973:
.LBB1974:
	.loc 2 96 2
#APP
# 96 "/tina-d1/lichee/brandy-2.0/spl/include/arch/riscv/asm/io.h" 1
	fence ow,ow
# 0 "" 2
	.loc 2 97 2
#NO_APP
.LBE1974:
.LBE1973:
.LBB1976:
.LBB1972:
	.loc 1 128 8 is_stmt 0
	and	a5,a5,s11
.LVL981:
	ori	a5,a5,1776
.LBE1972:
.LBE1976:
.LBB1977:
.LBB1975:
	.loc 2 97 2
	sw	a5,0(a4)
.LVL982:
.LBE1975:
.LBE1977:
	.loc 1 1929 4 is_stmt 1
.LBB1978:
.LBB1979:
	.loc 2 138 2
	.loc 2 140 2
	.loc 2 140 6 is_stmt 0
	lw	a5,4(a4)
.LVL983:
	.loc 2 141 2 is_stmt 1
#APP
# 141 "/tina-d1/lichee/brandy-2.0/spl/include/arch/riscv/asm/io.h" 1
	fence ir,ir
# 0 "" 2
	.loc 2 142 2
.LVL984:
#NO_APP
.LBE1979:
.LBE1978:
	.loc 1 1930 4
	.loc 1 127 2
	.loc 1 128 2
	.loc 1 1931 4
	.loc 1 127 2
	.loc 1 128 2
	.loc 1 1932 4
	.loc 1 127 2
	.loc 1 128 2
	.loc 1 1933 4
	.loc 1 1934 4
.LBB1980:
.LBB1981:
	.loc 2 96 2
#APP
# 96 "/tina-d1/lichee/brandy-2.0/spl/include/arch/riscv/asm/io.h" 1
	fence ow,ow
# 0 "" 2
	.loc 2 97 2
#NO_APP
.LBE1981:
.LBE1980:
	.loc 1 1933 12 is_stmt 0
	and	a5,a5,s11
.LVL985:
	ori	a5,a5,1777
.LBB1983:
.LBB1982:
	.loc 2 97 2
	sw	a5,4(a4)
.LVL986:
.LBE1982:
.LBE1983:
	.loc 1 1935 4 is_stmt 1
	.loc 1 1936 4
	.loc 1 1936 20 is_stmt 0
	li	s1,1207959552
	.loc 1 1935 19
	li	s9,1207959552
.LVL987:
.L257:
	addiw	s10,s10,16
	addi	s6,s6,4
.LVL988:
	j	.L256
.LVL989:
.L285:
	.loc 1 1997 22
	li	a4,1
.LVL990:
	j	.L268
.LVL991:
.L278:
	.loc 1 2078 4 is_stmt 1
	.loc 1 2079 4
	.loc 1 2079 21 is_stmt 0
	ori	a4,a4,256
	.loc 1 2080 4
	lui	a0,%hi(.LC27)
	.loc 1 2079 21
	sw	a4,20(s7)
	.loc 1 2080 4 is_stmt 1
	addi	a0,a0,%lo(.LC27)
	j	.L301
.LVL992:
.L273:
	.loc 1 2051 4
	.loc 1 2037 18 is_stmt 0
	addiw	a4,a4,1
.LVL993:
	.loc 1 2037 3
	bne	a4,a6,.L279
	.loc 1 2057 6
	li	a4,13
	j	.L275
.LVL994:
.L262:
	.loc 1 1965 4 is_stmt 1
	.loc 1 1951 25 is_stmt 0
	addiw	a4,a4,1
.LVL995:
	.loc 1 1951 3
	bne	a4,a6,.L280
	.loc 1 1971 6
	li	a4,16
	j	.L281
	.cfi_endproc
.LFE59:
	.size	auto_scan_dram_size, .-auto_scan_dram_size
	.section	.text.auto_scan_dram_rank_width,"ax",@progbits
	.align	1
	.globl	auto_scan_dram_rank_width
	.type	auto_scan_dram_rank_width, @function
auto_scan_dram_rank_width:
.LFB61:
	.loc 1 2160 1 is_stmt 1
	.cfi_startproc
.LVL996:
	.loc 1 2161 2
	.loc 1 2162 2
	.loc 1 2163 2
	.loc 1 2160 1 is_stmt 0
	addi	sp,sp,-32
	.cfi_def_cfa_offset 32
	.loc 1 2167 19
	li	a5,11534336
	.loc 1 2160 1
	sdd	s0,s1,(sp),0,4
	sd	s2,16(sp)
	sd	ra,24(sp)
	.cfi_offset 8, -32
	.cfi_offset 9, -24
	.cfi_offset 18, -16
	.cfi_offset 1, -8
	.loc 1 2167 19
	addiw	a5,a5,176
	.loc 1 2164 15
	lw	s2,16(a0)
	.loc 1 2167 19
	sw	a5,16(a0)
	.loc 1 2169 19
	lw	a5,20(a0)
	.loc 1 2163 15
	lw	s1,92(a0)
.LVL997:
	.loc 1 2164 2 is_stmt 1
	.loc 1 2166 2
	.loc 1 2167 2
	.loc 1 2168 2
	.loc 1 2169 2
	.loc 1 2169 19 is_stmt 0
	li	a4,4096
	andi	a5,a5,-16
	or	a5,a5,a4
	sw	a5,20(a0)
	.loc 1 2172 2 is_stmt 1
	.loc 1 2173 2
	.loc 1 2173 19 is_stmt 0
	andi	a5,s1,-9
	ori	a5,a5,5
	sw	a5,92(a0)
	.loc 1 2175 2 is_stmt 1
	.loc 1 2160 1 is_stmt 0
	mv	s0,a0
	.loc 1 2175 12
	call	mctl_core_init
.LVL998:
	.loc 1 2176 2 is_stmt 1
.LBB1984:
.LBB1985:
	.loc 2 138 2
	.loc 2 140 2
	.loc 2 140 6 is_stmt 0
	li	a5,51392512
	lw	a5,16(a5)
.LVL999:
	.loc 2 141 2 is_stmt 1
#APP
# 141 "/tina-d1/lichee/brandy-2.0/spl/include/arch/riscv/asm/io.h" 1
	fence ir,ir
# 0 "" 2
	.loc 2 142 2
.LVL1000:
#NO_APP
.LBE1985:
.LBE1984:
	.loc 1 2178 2
	.loc 1 2178 4 is_stmt 0
	slli	a4,a5,43
	bgez	a4,.L303
.LVL1001:
.L305:
	.loc 1 2180 10
	li	a0,0
.L304:
	.loc 1 2192 1
	ld	ra,24(sp)
	.cfi_remember_state
	.cfi_restore 1
	ldd	s0,s1,(sp),0,4
	.cfi_restore 9
	.cfi_restore 8
.LVL1002:
	ld	s2,16(sp)
	.cfi_restore 18
.LVL1003:
	addi	sp,sp,32
	.cfi_def_cfa_offset 0
	jr	ra
.LVL1004:
.L303:
	.cfi_restore_state
	.loc 1 2182 2 is_stmt 1
	.loc 1 2182 12 is_stmt 0
	mv	a0,s0
	call	dqs_gate_detect
.LVL1005:
	sext.w	a0,a0
.LVL1006:
	.loc 1 2184 2 is_stmt 1
	.loc 1 2184 4 is_stmt 0
	beqz	a0,.L305
	.loc 1 2189 2 is_stmt 1
	.loc 1 2189 19 is_stmt 0
	sw	s1,92(s0)
	.loc 1 2190 2 is_stmt 1
	.loc 1 2190 19 is_stmt 0
	sw	s2,16(s0)
	.loc 1 2191 2 is_stmt 1
	.loc 1 2191 9 is_stmt 0
	li	a0,1
.LVL1007:
	j	.L304
	.cfi_endproc
.LFE61:
	.size	auto_scan_dram_rank_width, .-auto_scan_dram_rank_width
	.section	.text.auto_scan_dram_config,"ax",@progbits
	.align	1
	.globl	auto_scan_dram_config
	.type	auto_scan_dram_config, @function
auto_scan_dram_config:
.LFB62:
	.loc 1 2358 1 is_stmt 1
	.cfi_startproc
.LVL1008:
	.loc 1 2359 3
	.loc 1 2374 2
	.loc 1 2374 5 is_stmt 0
	lw	a5,92(a0)
	.loc 1 2358 1
	addi	sp,sp,-32
	.cfi_def_cfa_offset 32
	sd	s1,16(sp)
	sd	ra,24(sp)
	sd	s0,8(sp)
	.cfi_offset 9, -16
	.cfi_offset 1, -8
	.cfi_offset 8, -24
	.loc 1 2374 4
	slli	a4,a5,49
	.loc 1 2358 1
	mv	s1,a0
	.loc 1 2374 4
	bltz	a4,.L311
	.loc 1 2376 3 is_stmt 1
	.loc 1 2376 13 is_stmt 0
	call	auto_scan_dram_rank_width
.LVL1009:
	sext.w	s0,a0
.LVL1010:
	.loc 1 2377 3 is_stmt 1
	.loc 1 2377 5 is_stmt 0
	bnez	s0,.L311
	.loc 1 2379 4 is_stmt 1
	lui	a0,%hi(.LC28)
	addi	a0,a0,%lo(.LC28)
.L316:
	.loc 1 2391 4 is_stmt 0
	call	sys_uart_printf
.LVL1011:
	.loc 1 2392 4 is_stmt 1
.L312:
	.loc 1 2403 1 is_stmt 0
	mv	a0,s0
	ld	ra,24(sp)
	.cfi_remember_state
	.cfi_restore 1
	ld	s0,8(sp)
	.cfi_restore 8
	ld	s1,16(sp)
	.cfi_restore 9
.LVL1012:
	addi	sp,sp,32
	.cfi_def_cfa_offset 0
	jr	ra
.LVL1013:
.L311:
	.cfi_restore_state
	.loc 1 2386 2 is_stmt 1
	.loc 1 2386 31 is_stmt 0
	lw	a5,92(s1)
	.loc 1 2386 4
	andi	a5,a5,1
	bnez	a5,.L313
	.loc 1 2388 3 is_stmt 1
	.loc 1 2388 13 is_stmt 0
	mv	a0,s1
	call	auto_scan_dram_size
.LVL1014:
	sext.w	s0,a0
.LVL1015:
	.loc 1 2389 3 is_stmt 1
	.loc 1 2389 5 is_stmt 0
	bnez	s0,.L313
	.loc 1 2391 4 is_stmt 1
	lui	a0,%hi(.LC29)
	addi	a0,a0,%lo(.LC29)
	j	.L316
.LVL1016:
.L313:
	.loc 1 2397 2
	.loc 1 2397 12 is_stmt 0
	lw	a5,92(s1)
	.loc 1 2402 10
	li	s0,1
	.loc 1 2397 4
	slli	a4,a5,48
	bltz	a4,.L312
	.loc 1 2399 3 is_stmt 1
	.loc 1 2400 3
	.loc 1 2400 20 is_stmt 0
	li	a4,24576
	addi	a4,a4,3
	or	a5,a5,a4
	sw	a5,92(s1)
	j	.L312
	.cfi_endproc
.LFE62:
	.size	auto_scan_dram_config, .-auto_scan_dram_config
	.section	.text.init_DRAM,"ax",@progbits
	.align	1
	.globl	init_DRAM
	.type	init_DRAM, @function
init_DRAM:
.LFB66:
	.loc 1 2524 1 is_stmt 1
	.cfi_startproc
.LVL1017:
	.loc 1 2525 2
	.loc 1 2526 2
	.loc 1 2527 2
	.loc 1 2529 2
	.loc 1 2534 2
	.loc 1 2534 5 is_stmt 0
	lw	a5,92(a1)
	.loc 1 2524 1
	addi	sp,sp,-32
	.cfi_def_cfa_offset 32
	sd	s0,8(sp)
	sd	ra,24(sp)
	sd	s1,16(sp)
	.cfi_offset 8, -24
	.cfi_offset 1, -8
	.cfi_offset 9, -16
	.loc 1 2534 4
	slli	a4,a5,47
	.loc 1 2524 1
	mv	s0,a1
	.loc 1 2534 4
	bltz	a4,.L318
	.loc 1 2537 3 is_stmt 1
.LVL1018:
.LBB1986:
.LBB1987:
	.loc 2 96 2
#APP
# 96 "/tina-d1/lichee/brandy-2.0/spl/include/arch/riscv/asm/io.h" 1
	fence ow,ow
# 0 "" 2
	.loc 2 97 2
#NO_APP
	li	a5,117506048
	sw	zero,596(a5)
.LVL1019:
.LBE1987:
.LBE1986:
	.loc 1 2538 3
.LBB1988:
.LBB1989:
	.loc 2 138 2
	.loc 2 140 2
	.loc 2 140 6 is_stmt 0
	li	s1,50331648
	lw	a5,352(s1)
.LVL1020:
	.loc 2 141 2 is_stmt 1
#APP
# 141 "/tina-d1/lichee/brandy-2.0/spl/include/arch/riscv/asm/io.h" 1
	fence ir,ir
# 0 "" 2
	.loc 2 142 2
.LVL1021:
#NO_APP
.LBE1989:
.LBE1988:
	.loc 1 2539 3
	.loc 1 2540 3
.LBB1990:
.LBB1991:
	.loc 2 96 2
#APP
# 96 "/tina-d1/lichee/brandy-2.0/spl/include/arch/riscv/asm/io.h" 1
	fence ow,ow
# 0 "" 2
	.loc 2 97 2
#NO_APP
.LBE1991:
.LBE1990:
	.loc 1 2539 11 is_stmt 0
	andi	a5,a5,-4
.LVL1022:
.LBB1993:
.LBB1992:
	.loc 2 97 2
	sw	a5,352(s1)
.LVL1023:
.LBE1992:
.LBE1993:
	.loc 1 2541 3 is_stmt 1
.LBB1994:
.LBB1995:
	.loc 1 59 3
	li	a0,10
.LVL1024:
	call	sdelay
.LVL1025:
.LBE1995:
.LBE1994:
	.loc 1 2542 3
.LBB1996:
.LBB1997:
	.loc 2 138 2
	.loc 2 140 2
	.loc 2 140 6 is_stmt 0
	lw	a5,352(s1)
.LVL1026:
	.loc 2 141 2 is_stmt 1
#APP
# 141 "/tina-d1/lichee/brandy-2.0/spl/include/arch/riscv/asm/io.h" 1
	fence ir,ir
# 0 "" 2
	.loc 2 142 2
.LVL1027:
#NO_APP
.LBE1997:
.LBE1996:
	.loc 1 2543 3
	.loc 1 2544 3
	.loc 1 2544 11 is_stmt 0
	andi	a5,a5,-265
.LVL1028:
	.loc 1 2545 3 is_stmt 1
.LBB1998:
.LBB1999:
	.loc 2 96 2
#APP
# 96 "/tina-d1/lichee/brandy-2.0/spl/include/arch/riscv/asm/io.h" 1
	fence ow,ow
# 0 "" 2
	.loc 2 97 2
#NO_APP
	sw	a5,352(s1)
.LVL1029:
.LBE1999:
.LBE1998:
	.loc 1 2546 3
.LBB2000:
.LBB2001:
	.loc 2 138 2
	.loc 2 140 2
	.loc 2 141 2
#APP
# 141 "/tina-d1/lichee/brandy-2.0/spl/include/arch/riscv/asm/io.h" 1
	fence ir,ir
# 0 "" 2
	.loc 2 142 2
.LVL1030:
#NO_APP
.LBE2001:
.LBE2000:
	.loc 1 2547 3
	.loc 1 2548 3
.LBB2002:
.LBB2003:
	.loc 2 96 2
#APP
# 96 "/tina-d1/lichee/brandy-2.0/spl/include/arch/riscv/asm/io.h" 1
	fence ow,ow
# 0 "" 2
	.loc 2 97 2
#NO_APP
.LBE2003:
.LBE2002:
	.loc 1 2547 11 is_stmt 0
	ori	a5,a5,2
.LVL1031:
.LBB2005:
.LBB2004:
	.loc 2 97 2
	sw	a5,352(s1)
.LVL1032:
.LBE2004:
.LBE2005:
	.loc 1 2549 3 is_stmt 1
.LBB2006:
.LBB2007:
	.loc 1 59 3
	li	a0,10
	call	sdelay
.LVL1033:
.LBE2007:
.LBE2006:
	.loc 1 2550 3
.LBB2008:
.LBB2009:
	.loc 2 138 2
	.loc 2 140 2
	.loc 2 140 6 is_stmt 0
	lw	a5,352(s1)
.LVL1034:
	.loc 2 141 2 is_stmt 1
#APP
# 141 "/tina-d1/lichee/brandy-2.0/spl/include/arch/riscv/asm/io.h" 1
	fence ir,ir
# 0 "" 2
	.loc 2 142 2
.LVL1035:
#NO_APP
.LBE2009:
.LBE2008:
	.loc 1 2551 3
	.loc 1 2552 3
.LBB2010:
.LBB2011:
	.loc 2 96 2
#APP
# 96 "/tina-d1/lichee/brandy-2.0/spl/include/arch/riscv/asm/io.h" 1
	fence ow,ow
# 0 "" 2
	.loc 2 97 2
#NO_APP
.LBE2011:
.LBE2010:
	.loc 1 2551 11 is_stmt 0
	ori	a5,a5,1
.LVL1036:
.LBB2013:
.LBB2012:
	.loc 2 97 2
	sw	a5,352(s1)
.LVL1037:
.LBE2012:
.LBE2013:
	.loc 1 2556 3 is_stmt 1
.LBB2014:
.LBB2015:
	.loc 1 59 3
	li	a0,20
	call	sdelay
.LVL1038:
.LBE2015:
.LBE2014:
	.loc 1 2557 3
.LBB2016:
.LBB2017:
	.loc 2 138 2
	.loc 2 140 2
	.loc 2 140 6 is_stmt 0
	lw	a1,364(s1)
.LVL1039:
	.loc 2 141 2 is_stmt 1
#APP
# 141 "/tina-d1/lichee/brandy-2.0/spl/include/arch/riscv/asm/io.h" 1
	fence ir,ir
# 0 "" 2
	.loc 2 142 2
.LVL1040:
#NO_APP
.LBE2017:
.LBE2016:
	.loc 1 2557 3 is_stmt 0
	lui	a0,%hi(.LC30)
	addi	a0,a0,%lo(.LC30)
	call	sys_uart_printf
.LVL1041:
.L319:
	.loc 1 2589 2 is_stmt 1
	.loc 1 2589 12 is_stmt 0
	call	get_pmu_exist
.LVL1042:
	mv	s1,a0
.LVL1043:
	.loc 1 2590 2 is_stmt 1
	mv	a1,a0
	lui	a0,%hi(.LC32)
.LVL1044:
	addi	a0,a0,%lo(.LC32)
	call	sys_uart_printf
.LVL1045:
	.loc 1 2593 2
	.loc 1 2593 4 is_stmt 0
	bgez	s1,.L320
	.loc 1 2595 3 is_stmt 1
	mv	a0,s0
	call	dram_vol_set
.LVL1046:
.L321:
	.loc 1 2617 2
	.loc 1 2617 24 is_stmt 0
	lw	a5,92(s0)
	.loc 1 2617 4
	andi	a5,a5,1
	beqz	a5,.L324
.LVL1047:
.L327:
	.loc 1 2637 2 is_stmt 1
	lui	a1,%hi(.LC33)
	lui	a0,%hi(.LC34)
	addi	a1,a1,%lo(.LC33)
	addi	a0,a0,%lo(.LC34)
	call	sys_uart_printf
.LVL1048:
	.loc 1 2638 2
	lw	a1,0(s0)
	lui	a0,%hi(.LC35)
	addi	a0,a0,%lo(.LC35)
	call	sys_uart_printf
.LVL1049:
	.loc 1 2639 2
	lw	a1,4(s0)
	lui	a0,%hi(.LC36)
	addi	a0,a0,%lo(.LC36)
	call	sys_uart_printf
.LVL1050:
	.loc 1 2640 2
	.loc 1 2640 23 is_stmt 0
	lw	a5,12(s0)
	.loc 1 2640 4
	andi	a5,a5,1
	bnez	a5,.L325
	.loc 1 2643 3 is_stmt 1
	lui	a0,%hi(.LC38)
	addi	a0,a0,%lo(.LC38)
	call	sys_uart_printf
.LVL1051:
	j	.L329
.LVL1052:
.L318:
	.loc 1 2567 3
	lui	a0,%hi(.LC31)
.LVL1053:
	addi	a0,a0,%lo(.LC31)
	call	sys_uart_printf
.LVL1054:
	.loc 1 2569 3
.LBB2018:
.LBB2019:
	.loc 2 138 2
	.loc 2 140 2
	.loc 2 140 6 is_stmt 0
	li	a5,50331648
	lw	a4,352(a5)
.LVL1055:
	.loc 2 141 2 is_stmt 1
#APP
# 141 "/tina-d1/lichee/brandy-2.0/spl/include/arch/riscv/asm/io.h" 1
	fence ir,ir
# 0 "" 2
	.loc 2 142 2
.LVL1056:
#NO_APP
.LBE2019:
.LBE2018:
.LBB2020:
.LBB2021:
	.loc 2 96 2
#APP
# 96 "/tina-d1/lichee/brandy-2.0/spl/include/arch/riscv/asm/io.h" 1
	fence ow,ow
# 0 "" 2
	.loc 2 97 2
#NO_APP
.LBE2021:
.LBE2020:
	.loc 1 2569 3 is_stmt 0
	ori	a4,a4,256
.LVL1057:
.LBB2023:
.LBB2022:
	.loc 2 97 2
	sw	a4,352(a5)
.LVL1058:
.LBE2022:
.LBE2023:
	.loc 1 2571 3 is_stmt 1
.LBB2024:
.LBB2025:
	.loc 2 96 2
#APP
# 96 "/tina-d1/lichee/brandy-2.0/spl/include/arch/riscv/asm/io.h" 1
	fence ow,ow
# 0 "" 2
	.loc 2 97 2
#NO_APP
.LBE2025:
.LBE2024:
.LBB2027:
.LBB2028:
	.loc 1 59 3 is_stmt 0
	li	a0,10
.LBE2028:
.LBE2027:
.LBB2030:
.LBB2026:
	.loc 2 97 2
	sw	zero,360(a5)
.LVL1059:
.LBE2026:
.LBE2030:
	.loc 1 2572 3 is_stmt 1
.LBB2031:
.LBB2029:
	.loc 1 59 3
	call	sdelay
.LVL1060:
	j	.L319
.LVL1061:
.L320:
.LBE2029:
.LBE2031:
	.loc 1 2599 3
	.loc 1 2599 14 is_stmt 0
	lw	a5,4(s0)
	li	a4,2
	beq	a5,a4,.L322
	li	a4,3
	bne	a5,a4,.L321
	.loc 1 2605 6 is_stmt 1
	li	a0,1500
	j	.L354
.L322:
	.loc 1 2602 6
	li	a0,1800
.L354:
	.loc 1 2605 6 is_stmt 0
	call	set_ddr_voltage
.LVL1062:
	.loc 1 2606 6 is_stmt 1
	j	.L321
.L324:
	.loc 1 2619 3
	.loc 1 2619 13 is_stmt 0
	mv	a0,s0
	call	auto_scan_dram_config
.LVL1063:
	sext.w	a0,a0
.LVL1064:
	.loc 1 2620 3 is_stmt 1
	.loc 1 2620 5 is_stmt 0
	bnez	a0,.L327
.LVL1065:
.L356:
	.loc 1 2653 3 is_stmt 1
	.loc 1 2653 10 is_stmt 0
	li	a0,0
.L328:
	.loc 1 2827 1
	ld	ra,24(sp)
	.cfi_remember_state
	.cfi_restore 1
	ld	s0,8(sp)
	.cfi_restore 8
.LVL1066:
	ld	s1,16(sp)
	.cfi_restore 9
	addi	sp,sp,32
	.cfi_def_cfa_offset 0
	jr	ra
.LVL1067:
.L325:
	.cfi_restore_state
	.loc 1 2641 3 is_stmt 1
	lw	a1,8(s0)
	lui	a0,%hi(.LC37)
	addi	a0,a0,%lo(.LC37)
	call	sys_uart_printf
.LVL1068:
.L329:
	.loc 1 2644 2
	.loc 1 2644 9 is_stmt 0
	lw	a1,28(s0)
	.loc 1 2644 4
	andi	a5,a1,68
	beqz	a5,.L330
	.loc 1 2645 3 is_stmt 1
	lui	a0,%hi(.LC39)
	addi	a0,a0,%lo(.LC39)
	call	sys_uart_printf
.LVL1069:
.L331:
	.loc 1 2649 2
	.loc 1 2649 12 is_stmt 0
	mv	a0,s0
	call	mctl_core_init
.LVL1070:
	sext.w	a0,a0
.LVL1071:
	.loc 1 2650 2 is_stmt 1
	.loc 1 2650 4 is_stmt 0
	bnez	a0,.L332
	.loc 1 2652 3 is_stmt 1
	lui	a0,%hi(.LC41)
.LVL1072:
	addi	a0,a0,%lo(.LC41)
	call	sys_uart_printf
.LVL1073:
	j	.L356
.L330:
	.loc 1 2647 3
	lui	a0,%hi(.LC40)
	addi	a0,a0,%lo(.LC40)
	call	sys_uart_printf
.LVL1074:
	j	.L331
.LVL1075:
.L332:
	.loc 1 2660 2
	.loc 1 2660 10 is_stmt 0
	lw	s1,20(s0)
	.loc 1 2660 4
	bgez	s1,.L333
	.loc 1 2662 3 is_stmt 1
	.loc 1 2662 13 is_stmt 0
	extu	s1,s1,16+15-1,16
.LVL1076:
.L334:
	.loc 1 2673 2 is_stmt 1
	.loc 1 2673 5 is_stmt 0
	lw	a5,92(s0)
	.loc 1 2673 4
	slli	a4,a5,33
	bgez	a4,.L335
	.loc 1 2675 3 is_stmt 1
.LVL1077:
.LBB2032:
.LBB2033:
	.loc 2 138 2
	.loc 2 140 2
	.loc 2 141 2
#APP
# 141 "/tina-d1/lichee/brandy-2.0/spl/include/arch/riscv/asm/io.h" 1
	fence ir,ir
# 0 "" 2
	.loc 2 142 2
.LVL1078:
#NO_APP
.LBE2033:
.LBE2032:
	.loc 1 2676 3
	.loc 1 2676 12 is_stmt 0
	lw	a5,72(s0)
	.loc 1 2676 5
	bnez	a5,.L336
	.loc 1 2677 12
	li	a5,268435456
	addi	a5,a5,512
.L336:
.LVL1079:
	.loc 1 2680 3 is_stmt 1
.LBB2034:
.LBB2035:
	.loc 2 96 2
#APP
# 96 "/tina-d1/lichee/brandy-2.0/spl/include/arch/riscv/asm/io.h" 1
	fence ow,ow
# 0 "" 2
	.loc 2 97 2
#NO_APP
	li	a4,51392512
	sw	a5,160(a4)
.LVL1080:
.LBE2035:
.LBE2034:
	.loc 1 2681 3
.LBB2036:
.LBB2037:
	.loc 2 96 2
#APP
# 96 "/tina-d1/lichee/brandy-2.0/spl/include/arch/riscv/asm/io.h" 1
	fence ow,ow
# 0 "" 2
	.loc 2 97 2
#NO_APP
	li	a5,1034
.LVL1081:
	sw	a5,156(a4)
.LVL1082:
.LBE2037:
.LBE2036:
	.loc 1 2683 3
.LBB2038:
.LBB2039:
	.loc 2 138 2
	.loc 2 140 2
	.loc 2 140 6 is_stmt 0
	lw	a5,4(a4)
.LVL1083:
	.loc 2 141 2 is_stmt 1
#APP
# 141 "/tina-d1/lichee/brandy-2.0/spl/include/arch/riscv/asm/io.h" 1
	fence ir,ir
# 0 "" 2
	.loc 2 142 2
.LVL1084:
#NO_APP
.LBE2039:
.LBE2038:
	.loc 1 2684 3
	.loc 1 2685 3
.LBB2040:
.LBB2041:
	.loc 2 96 2
#APP
# 96 "/tina-d1/lichee/brandy-2.0/spl/include/arch/riscv/asm/io.h" 1
	fence ow,ow
# 0 "" 2
	.loc 2 97 2
#NO_APP
.LBE2041:
.LBE2040:
	.loc 1 2686 3 is_stmt 0
	lui	a0,%hi(.LC43)
	.loc 1 2684 11
	ori	a5,a5,1
.LVL1085:
.LBB2043:
.LBB2042:
	.loc 2 97 2
	sw	a5,4(a4)
.LVL1086:
.LBE2042:
.LBE2043:
	.loc 1 2686 3 is_stmt 1
	addi	a0,a0,%lo(.LC43)
	call	sys_uart_printf
.LVL1087:
.L337:
	.loc 1 2698 34
	.loc 1 2705 2
	li	a3,51392512
	lw	a4,256(a3)
	li	a5,-61440
	addi	a5,a5,-1
	and	a5,a5,a4
	.loc 1 2705 5 is_stmt 0
	lw	a4,92(s0)
	andi	a4,a4,512
	.loc 1 2705 4
	bnez	a4,.L338
	.loc 1 2705 37 discriminator 1
	lw	a2,4(s0)
	li	a4,6
	bne	a2,a4,.L339
.L338:
	.loc 1 2707 3 is_stmt 1
.LVL1088:
.LBB2044:
.LBB2045:
	.loc 2 138 2
	.loc 2 140 2
	.loc 2 141 2
#APP
# 141 "/tina-d1/lichee/brandy-2.0/spl/include/arch/riscv/asm/io.h" 1
	fence ir,ir
# 0 "" 2
	.loc 2 142 2
.LVL1089:
#NO_APP
.LBE2045:
.LBE2044:
	.loc 1 2708 3
	.loc 1 2709 3
	.loc 1 2710 3
.LBB2046:
.LBB2047:
	.loc 2 96 2
#APP
# 96 "/tina-d1/lichee/brandy-2.0/spl/include/arch/riscv/asm/io.h" 1
	fence ow,ow
# 0 "" 2
	.loc 2 97 2
#NO_APP
.LBE2047:
.LBE2046:
	.loc 1 2709 11 is_stmt 0
	li	a4,20480
	or	a5,a5,a4
.LVL1090:
.LBB2049:
.LBB2048:
	.loc 2 97 2
	li	a4,51392512
	sw	a5,256(a4)
.LVL1091:
.L340:
.LBE2048:
.LBE2049:
	.loc 1 2718 40 is_stmt 1
	.loc 1 2721 2
.LBB2050:
.LBB2051:
	.loc 2 138 2
	.loc 2 140 2
	.loc 2 140 6 is_stmt 0
	li	a5,51392512
	lw	a4,320(a5)
.LVL1092:
	.loc 2 141 2 is_stmt 1
#APP
# 141 "/tina-d1/lichee/brandy-2.0/spl/include/arch/riscv/asm/io.h" 1
	fence ir,ir
# 0 "" 2
	.loc 2 142 2
.LVL1093:
#NO_APP
.LBE2051:
.LBE2050:
	.loc 1 2722 2
	.loc 1 2723 2
.LBB2052:
.LBB2053:
	.loc 2 96 2
#APP
# 96 "/tina-d1/lichee/brandy-2.0/spl/include/arch/riscv/asm/io.h" 1
	fence ow,ow
# 0 "" 2
	.loc 2 97 2
#NO_APP
.LBE2053:
.LBE2052:
	.loc 1 2722 10 is_stmt 0
	li	a3,-2147483648
	or	a4,a4,a3
.LVL1094:
.LBB2055:
.LBB2054:
	.loc 2 97 2
	sw	a4,320(a5)
.LVL1095:
.LBE2054:
.LBE2055:
	.loc 1 2730 2 is_stmt 1
	.loc 1 2730 5 is_stmt 0
	lw	a4,92(s0)
	andi	a4,a4,256
	.loc 1 2730 4
	beqz	a4,.L341
	.loc 1 2732 3 is_stmt 1
.LVL1096:
.LBB2056:
.LBB2057:
	.loc 2 138 2
	.loc 2 140 2
	.loc 2 140 6 is_stmt 0
	lw	a4,184(a5)
.LVL1097:
	.loc 2 141 2 is_stmt 1
#APP
# 141 "/tina-d1/lichee/brandy-2.0/spl/include/arch/riscv/asm/io.h" 1
	fence ir,ir
# 0 "" 2
	.loc 2 142 2
.LVL1098:
#NO_APP
.LBE2057:
.LBE2056:
	.loc 1 2733 3
	.loc 1 2734 3
	.loc 1 2735 3
.LBB2058:
.LBB2059:
	.loc 2 96 2
#APP
# 96 "/tina-d1/lichee/brandy-2.0/spl/include/arch/riscv/asm/io.h" 1
	fence ow,ow
# 0 "" 2
	.loc 2 97 2
#NO_APP
.LBE2059:
.LBE2058:
	.loc 1 2734 11 is_stmt 0
	ori	a4,a4,768
.LVL1099:
.LBB2061:
.LBB2060:
	.loc 2 97 2
	sw	a4,184(a5)
.LVL1100:
.L341:
.LBE2060:
.LBE2061:
	.loc 1 2736 29 is_stmt 1
	.loc 1 2738 2
	.loc 1 2738 5 is_stmt 0
	lw	a3,92(s0)
	li	a4,51392512
	lw	a5,264(a4)
	.loc 1 2738 4
	slli	a2,a3,37
	bgez	a2,.L342
	.loc 1 2740 3 is_stmt 1
.LVL1101:
.LBB2062:
.LBB2063:
	.loc 2 138 2
	.loc 2 140 2
	.loc 2 141 2
#APP
# 141 "/tina-d1/lichee/brandy-2.0/spl/include/arch/riscv/asm/io.h" 1
	fence ir,ir
# 0 "" 2
	.loc 2 142 2
.LVL1102:
#NO_APP
.LBE2063:
.LBE2062:
	.loc 1 2741 3
	.loc 1 2742 3
.LBB2064:
.LBB2065:
	.loc 2 96 2
#APP
# 96 "/tina-d1/lichee/brandy-2.0/spl/include/arch/riscv/asm/io.h" 1
	fence ow,ow
# 0 "" 2
	.loc 2 97 2
#NO_APP
.LBE2065:
.LBE2064:
	.loc 1 2741 11 is_stmt 0
	li	a3,-8192
	addi	a3,a3,-1
	and	a5,a5,a3
.LVL1103:
.L355:
.LBB2066:
.LBB2067:
	.loc 2 97 2
	sw	a5,264(a4)
.LBE2067:
.LBE2066:
	.loc 1 2750 34 is_stmt 1
	.loc 1 2752 2
	.loc 1 2752 4 is_stmt 0
	lw	a4,4(s0)
	li	a5,7
	bne	a4,a5,.L344
	.loc 1 2754 3 is_stmt 1
.LVL1104:
.LBB2069:
.LBB2070:
	.loc 2 138 2
	.loc 2 140 2
	.loc 2 140 6 is_stmt 0
	li	a3,51392512
	lw	a5,124(a3)
.LVL1105:
	.loc 2 141 2 is_stmt 1
#APP
# 141 "/tina-d1/lichee/brandy-2.0/spl/include/arch/riscv/asm/io.h" 1
	fence ir,ir
# 0 "" 2
	.loc 2 142 2
.LVL1106:
#NO_APP
.LBE2070:
.LBE2069:
	.loc 1 2755 3
	.loc 1 2755 11 is_stmt 0
	li	a4,-983040
	addi	a4,a4,-1
	and	a5,a5,a4
.LVL1107:
	.loc 1 2756 3 is_stmt 1
	.loc 1 2757 3
.LBB2071:
.LBB2072:
	.loc 2 96 2
#APP
# 96 "/tina-d1/lichee/brandy-2.0/spl/include/arch/riscv/asm/io.h" 1
	fence ow,ow
# 0 "" 2
	.loc 2 97 2
#NO_APP
.LBE2072:
.LBE2071:
	.loc 1 2756 11 is_stmt 0
	li	a4,65536
	or	a5,a5,a4
.LVL1108:
.LBB2074:
.LBB2073:
	.loc 2 97 2
	sw	a5,124(a3)
.LVL1109:
.L344:
.LBE2073:
.LBE2074:
	.loc 1 2800 2 is_stmt 1
	call	dram_enable_all_master
.LVL1110:
	.loc 1 2801 2
	.loc 1 2801 5 is_stmt 0
	lw	a5,92(s0)
	.loc 1 2801 4
	slli	a4,a5,35
	bltz	a4,.L345
.L346:
	.loc 1 2825 2 is_stmt 1
	call	handler_super_standby
.LVL1111:
	.loc 1 2826 2
	.loc 1 2826 9 is_stmt 0
	sext.w	a0,s1
	j	.L328
.LVL1112:
.L333:
	.loc 1 2666 3 is_stmt 1
	.loc 1 2666 15 is_stmt 0
	call	DRAMC_get_dram_size
.LVL1113:
	sext.w	s1,a0
.LVL1114:
	.loc 1 2667 3 is_stmt 1
	lui	a0,%hi(.LC42)
	mv	a1,s1
	addi	a0,a0,%lo(.LC42)
	call	sys_uart_printf
.LVL1115:
	.loc 1 2668 3
	.loc 1 2668 40 is_stmt 0
	lhu	a5,20(s0)
	.loc 1 2668 63
	slliw	a4,s1,16
	.loc 1 2668 50
	or	a5,a5,a4
	.loc 1 2668 20
	sw	a5,20(s0)
	j	.L334
.L335:
	.loc 1 2690 3 is_stmt 1
.LVL1116:
.LBB2075:
.LBB2076:
	.loc 2 138 2
	.loc 2 140 2
	.loc 2 140 6 is_stmt 0
	li	a5,51392512
	lw	a4,160(a5)
.LVL1117:
	.loc 2 141 2 is_stmt 1
#APP
# 141 "/tina-d1/lichee/brandy-2.0/spl/include/arch/riscv/asm/io.h" 1
	fence ir,ir
# 0 "" 2
	.loc 2 142 2
.LVL1118:
#NO_APP
.LBE2076:
.LBE2075:
	.loc 1 2691 3
	.loc 1 2692 3
.LBB2077:
.LBB2078:
	.loc 2 96 2
#APP
# 96 "/tina-d1/lichee/brandy-2.0/spl/include/arch/riscv/asm/io.h" 1
	fence ow,ow
# 0 "" 2
	.loc 2 97 2
#NO_APP
.LBE2078:
.LBE2077:
	.loc 1 2691 11 is_stmt 0
	li	a3,-65536
	and	a4,a4,a3
.LVL1119:
.LBB2080:
.LBB2079:
	.loc 2 97 2
	sw	a4,160(a5)
.LVL1120:
.LBE2079:
.LBE2080:
	.loc 1 2694 3 is_stmt 1
.LBB2081:
.LBB2082:
	.loc 2 138 2
	.loc 2 140 2
	.loc 2 140 6 is_stmt 0
	lw	a4,4(a5)
.LVL1121:
	.loc 2 141 2 is_stmt 1
#APP
# 141 "/tina-d1/lichee/brandy-2.0/spl/include/arch/riscv/asm/io.h" 1
	fence ir,ir
# 0 "" 2
	.loc 2 142 2
.LVL1122:
#NO_APP
.LBE2082:
.LBE2081:
	.loc 1 2695 3
	.loc 1 2696 3
.LBB2083:
.LBB2084:
	.loc 2 96 2
#APP
# 96 "/tina-d1/lichee/brandy-2.0/spl/include/arch/riscv/asm/io.h" 1
	fence ow,ow
# 0 "" 2
	.loc 2 97 2
#NO_APP
.LBE2084:
.LBE2083:
	.loc 1 2695 11 is_stmt 0
	andi	a4,a4,-2
.LVL1123:
.LBB2086:
.LBB2085:
	.loc 2 97 2
	sw	a4,4(a5)
.LVL1124:
	j	.L337
.LVL1125:
.L339:
.LBE2085:
.LBE2086:
	.loc 1 2715 3 is_stmt 1
.LBB2087:
.LBB2088:
	.loc 2 138 2
	.loc 2 140 2
	.loc 2 141 2
#APP
# 141 "/tina-d1/lichee/brandy-2.0/spl/include/arch/riscv/asm/io.h" 1
	fence ir,ir
# 0 "" 2
	.loc 2 142 2
.LVL1126:
#NO_APP
.LBE2088:
.LBE2087:
	.loc 1 2716 3
	.loc 1 2717 3
.LBB2089:
.LBB2090:
	.loc 2 96 2
#APP
# 96 "/tina-d1/lichee/brandy-2.0/spl/include/arch/riscv/asm/io.h" 1
	fence ow,ow
# 0 "" 2
	.loc 2 97 2
#NO_APP
	sw	a5,256(a3)
.LVL1127:
	j	.L340
.LVL1128:
.L342:
.LBE2090:
.LBE2089:
	.loc 1 2747 3
.LBB2091:
.LBB2092:
	.loc 2 138 2
	.loc 2 140 2
	.loc 2 141 2
#APP
# 141 "/tina-d1/lichee/brandy-2.0/spl/include/arch/riscv/asm/io.h" 1
	fence ir,ir
# 0 "" 2
	.loc 2 142 2
.LVL1129:
#NO_APP
.LBE2092:
.LBE2091:
	.loc 1 2748 3
	.loc 1 2749 3
.LBB2093:
.LBB2068:
	.loc 2 96 2
#APP
# 96 "/tina-d1/lichee/brandy-2.0/spl/include/arch/riscv/asm/io.h" 1
	fence ow,ow
# 0 "" 2
	.loc 2 97 2
#NO_APP
.LBE2068:
.LBE2093:
	.loc 1 2748 11 is_stmt 0
	li	a3,8192
	or	a5,a5,a3
.LVL1130:
	j	.L355
.LVL1131:
.L345:
	.loc 1 2803 2 is_stmt 1
.LBB2094:
.LBB2095:
	.loc 2 138 2
	.loc 2 140 2
	.loc 2 140 6 is_stmt 0
	li	a5,117440512
	lw	a5,1492(a5)
.LVL1132:
	.loc 2 141 2 is_stmt 1
#APP
# 141 "/tina-d1/lichee/brandy-2.0/spl/include/arch/riscv/asm/io.h" 1
	fence ir,ir
# 0 "" 2
	.loc 2 142 2
.LVL1133:
#NO_APP
.LBE2095:
.LBE2094:
	.loc 1 2803 4 is_stmt 0
	slli	a4,a5,47
	bltz	a4,.L346
	.loc 1 2807 3 is_stmt 1
	.loc 1 2807 13 is_stmt 0
	li	a1,4096
	mv	a0,s1
	call	dramc_simple_wr_test
.LVL1134:
	sext.w	a0,a0
.LVL1135:
	.loc 1 2809 3 is_stmt 1
	.loc 1 2809 5 is_stmt 0
	beqz	a0,.L346
	j	.L356
	.cfi_endproc
.LFE66:
	.size	init_DRAM, .-init_DRAM
	.section	.text.mctl_init,"ax",@progbits
	.align	1
	.globl	mctl_init
	.type	mctl_init, @function
mctl_init:
.LFB67:
	.loc 1 2837 1 is_stmt 1
	.cfi_startproc
	.loc 1 2838 2
.LVL1136:
	.loc 1 2840 2
	.loc 1 2843 3
	.loc 1 2844 3
	.loc 1 2845 3
	.loc 1 2846 3
	.loc 1 2847 3
	.loc 1 2848 3
	.loc 1 2849 3
	.loc 1 2850 3
	.loc 1 2851 3
	.loc 1 2852 3
	.loc 1 2853 3
	.loc 1 2854 3
	.loc 1 2855 3
	.loc 1 2856 3
	.loc 1 2857 3
	.loc 1 2858 3
	.loc 1 2859 3
	.loc 1 2860 3
	.loc 1 2861 3
	.loc 1 2862 3
	.loc 1 2863 3
	.loc 1 2864 3
	.loc 1 2865 3
	.loc 1 2866 3
	.loc 1 2843 33 is_stmt 0
	li	a4,1
	slli	a5,a4,33
	.loc 1 2837 1
	addi	sp,sp,-112
	.cfi_def_cfa_offset 112
	.loc 1 2843 33
	addi	a5,a5,528
	sd	a5,0(sp)
	.loc 1 2845 33
	li	a5,8093696
	addi	a5,a5,-1031
	sd	a5,8(sp)
	.loc 1 2847 33
	li	a5,210
	sd	a5,16(sp)
	.loc 1 2849 33
	lui	a5,%hi(.LC44)
	ld	a5,%lo(.LC44)(a5)
	.loc 1 2863 33
	slli	a4,a4,50
	.loc 1 2924 13
	mv	a1,sp
	.loc 1 2849 33
	sd	a5,24(sp)
	.loc 1 2853 33
	lui	a5,%hi(.LC45)
	ld	a5,%lo(.LC45)(a5)
	.loc 1 2924 13
	li	a0,0
	.loc 1 2837 1
	sd	ra,104(sp)
	.cfi_offset 1, -8
	.loc 1 2853 33
	sd	a5,40(sp)
	.loc 1 2855 33
	lui	a5,%hi(.LC46)
	ld	a5,%lo(.LC46)(a5)
	.loc 1 2851 33
	sd	zero,32(sp)
	.loc 1 2861 33
	sd	zero,72(sp)
	.loc 1 2855 33
	sd	a5,48(sp)
	.loc 1 2857 33
	li	a5,151588864
	addi	a5,a5,-1783
	slli	a5,a5,35
	sd	a5,56(sp)
	.loc 1 2859 33
	lui	a5,%hi(.LC47)
	ld	a5,%lo(.LC47)(a5)
	.loc 1 2863 33
	sd	a4,80(sp)
	.loc 1 2859 33
	sd	a5,64(sp)
	.loc 1 2865 33
	li	a5,13
	slli	a5,a5,58
	addi	a5,a5,69
	sd	a5,88(sp)
	.loc 1 2924 3 is_stmt 1
	.loc 1 2924 13 is_stmt 0
	call	init_DRAM
.LVL1137:
	.loc 1 2925 3 is_stmt 1
	.loc 1 2945 1 is_stmt 0
	ld	ra,104(sp)
	.cfi_restore 1
	seqz	a0,a0
.LVL1138:
	addi	sp,sp,112
	.cfi_def_cfa_offset 0
	jr	ra
	.cfi_endproc
.LFE67:
	.size	mctl_init, .-mctl_init
	.section	.rodata
	.align	3
	.set	.LANCHOR0,. + 0
.LC0:
	.word	0
	.word	1
	.word	2
	.word	3
	.word	2
	.word	3
	.word	3
	.word	3
	.word	0
	.word	0
	.word	0
	.word	6
	.word	6
	.word	6
	.word	5
	.word	5
	.word	5
	.word	5
	.word	5
	.word	0
	.word	0
	.word	0
	.word	0
	.word	2
	.word	4
	.word	2
	.word	6
	.word	5
	.word	5
	.word	5
	.word	0
	.word	0
	.word	0
	.word	3
	.word	3
	.word	3
	.word	2
	.word	2
	.word	1
	.word	1
	.word	1
	.word	0
	.word	0
	.word	0
.LC1:
	.word	0
	.word	1
	.word	3
	.word	3
	.word	3
	.word	3
	.word	3
	.word	4
	.word	3
	.word	3
	.word	3
	.word	3
	.word	3
	.word	4
	.word	4
	.word	3
	.word	3
	.word	3
	.word	3
	.word	3
	.word	3
	.word	3
	.word	0
	.word	3
	.word	3
	.word	1
	.word	6
	.word	6
	.word	5
	.word	6
	.word	3
	.word	3
	.word	3
	.word	5
	.word	5
	.word	6
	.word	6
	.word	4
	.word	5
	.word	3
	.word	3
	.word	3
	.word	3
	.word	3
.LC2:
	.byte	1
	.byte	9
	.byte	3
	.byte	7
	.byte	8
	.byte	18
	.byte	4
	.byte	13
	.byte	5
	.byte	6
	.byte	10
	.byte	2
	.byte	14
	.byte	12
	.byte	0
	.byte	0
	.byte	21
	.byte	17
	.byte	20
	.byte	19
	.byte	11
	.byte	22
	.zero	2
.LC3:
	.byte	4
	.byte	9
	.byte	3
	.byte	7
	.byte	8
	.byte	18
	.byte	1
	.byte	13
	.byte	2
	.byte	6
	.byte	10
	.byte	5
	.byte	14
	.byte	12
	.byte	0
	.byte	0
	.byte	21
	.byte	17
	.byte	20
	.byte	19
	.byte	11
	.byte	22
	.zero	2
.LC4:
	.byte	1
	.byte	7
	.byte	8
	.byte	12
	.byte	10
	.byte	18
	.byte	4
	.byte	13
	.byte	5
	.byte	6
	.byte	3
	.byte	2
	.byte	9
	.byte	0
	.byte	0
	.byte	0
	.byte	21
	.byte	17
	.byte	20
	.byte	19
	.byte	11
	.byte	22
	.zero	2
.LC5:
	.byte	4
	.byte	12
	.byte	10
	.byte	7
	.byte	8
	.byte	18
	.byte	1
	.byte	13
	.byte	2
	.byte	6
	.byte	3
	.byte	5
	.byte	9
	.byte	0
	.byte	0
	.byte	0
	.byte	21
	.byte	17
	.byte	20
	.byte	19
	.byte	11
	.byte	22
	.zero	2
.LC6:
	.byte	13
	.byte	2
	.byte	7
	.byte	9
	.byte	12
	.byte	19
	.byte	5
	.byte	1
	.byte	6
	.byte	3
	.byte	4
	.byte	8
	.byte	10
	.byte	0
	.byte	0
	.byte	0
	.byte	21
	.byte	22
	.byte	18
	.byte	17
	.byte	11
	.byte	20
	.zero	2
.LC7:
	.byte	3
	.byte	10
	.byte	7
	.byte	13
	.byte	9
	.byte	11
	.byte	1
	.byte	2
	.byte	4
	.byte	6
	.byte	8
	.byte	5
	.byte	12
	.byte	0
	.byte	0
	.byte	0
	.byte	20
	.byte	1
	.byte	0
	.byte	21
	.byte	22
	.byte	17
	.zero	2
.LC8:
	.byte	3
	.byte	2
	.byte	4
	.byte	7
	.byte	9
	.byte	1
	.byte	17
	.byte	12
	.byte	18
	.byte	14
	.byte	13
	.byte	8
	.byte	15
	.byte	6
	.byte	10
	.byte	5
	.byte	19
	.byte	22
	.byte	16
	.byte	21
	.byte	20
	.byte	11
	.section	.rodata.cst4,"aM",@progbits,4
	.align	2
.LC9:
	.word	1103101952
.LC10:
	.word	1207959552
	.section	.rodata.cst8,"aM",@progbits,8
	.align	3
.LC44:
	.dword	8589938291
.LC45:
	.dword	86026940813089170
.LC46:
	.dword	-5442467564036460479
.LC47:
	.dword	1594575663124185160
	.section	.rodata.str1.8,"aMS",@progbits,1
	.align	3
.LC11:
	.string	"ddr_efuse_type: 0x%x\r\n"
	.zero	2
.LC12:
	.string	"ZQ calibration error,check external 240 ohm resistor.\r\n"
	.zero	1
.LC13:
	.string	"[AUTO DEBUG] two rank and full DQ!\r\n"
	.zero	4
.LC14:
	.string	"[AUTO DEBUG] single rank and full DQ!\r\n"
	.zero	1
.LC15:
	.string	"[AUTO DEBUG] single rank and half DQ!\r\n"
	.zero	1
.LC16:
	.string	"[AUTO DEBUG] dual rank and half DQ!\r\n"
	.zero	3
.LC17:
	.string	"DX0 state:%d\r\n"
	.zero	2
.LC18:
	.string	"DX1 state:%d\r\n"
	.zero	2
.LC19:
	.string	"DRAM simple test FAIL.\r\n"
.LC20:
	.string	"%x != %x at address %x\r\n"
.LC21:
	.string	"DRAM simple test OK.\r\n"
	.zero	2
.LC22:
	.string	"[ERROR DEBUG] DRAM initial error : 0!\r\n"
	.zero	1
.LC23:
	.string	"[AUTO DEBUG] rank %d row = %d \r\n"
.LC24:
	.string	"[AUTO DEBUG] rank %d bank = %d \r\n"
	.zero	7
.LC25:
	.string	"[AUTO DEBUG] rank %d page size = %d KB \r\n"
	.zero	7
.LC26:
	.string	"rank1 config same as rank0\r\n"
	.zero	4
.LC27:
	.string	"rank1 config different from rank0\r\n"
	.zero	5
.LC28:
	.string	"[ERROR DEBUG] auto scan dram rank&width fail !\r\n"
.LC29:
	.string	"[ERROR DEBUG] auto scan dram size fail !\r\n"
	.zero	6
.LC30:
	.string	"ZQ value = 0x%x***********\r\n"
	.zero	4
.LC31:
	.string	"DRAM only have internal ZQ!!\r\n"
	.zero	2
.LC32:
	.string	"get_pmu_exist() = %d\r\n"
	.zero	2
.LC33:
	.string	"V0.24"
	.zero	2
.LC34:
	.string	"DRAM BOOT DRIVE INFO: %s\r\n"
	.zero	6
.LC35:
	.string	"DRAM CLK = %d MHz\r\n"
	.zero	5
.LC36:
	.string	"DRAM Type = %d (2:DDR2,3:DDR3)\r\n"
.LC37:
	.string	"DRAMC ZQ value: 0x%x\r\n"
	.zero	2
.LC38:
	.string	"DRAMC read ODT  off.\r\n"
	.zero	2
.LC39:
	.string	"DRAM ODT value: 0x%x.\r\n"
	.zero	1
.LC40:
	.string	"DRAM ODT off.\r\n"
	.zero	1
.LC41:
	.string	"DRAM initial error : 1 !\r\n"
	.zero	6
.LC42:
	.string	"DRAM SIZE =%d M\r\n"
	.zero	7
.LC43:
	.string	"Enable Auto SR\r\n"
	.text
.Letext0:
	.file 3 "/tina-d1/lichee/brandy-2.0/spl/include/asm-generic/int-ll64.h"
	.file 4 "/tina-d1/lichee/brandy-2.0/tools/toolchain/riscv64-linux-x86_64-20200528/lib/gcc/riscv64-unknown-linux-gnu/8.1.0/include/stddef.h"
	.file 5 "mctl_hal.h"
	.file 6 "<built-in>"